	.cpu cortex-a15
	.eabi_attribute 20, 1
	.eabi_attribute 21, 1
	.eabi_attribute 23, 3
	.eabi_attribute 24, 1
	.eabi_attribute 25, 1
	.eabi_attribute 26, 2
	.eabi_attribute 30, 2
	.eabi_attribute 34, 1
	.eabi_attribute 18, 4
	.file	"android.c"
	.text
	.syntax divided


	.arm
	.syntax unified
	.align	2
	.syntax unified
	.arm
	.fpu softvfp
	.type	composite_setup_complete, %function
composite_setup_complete:
	.fnstart
	@ args = 0, pretend = 0, frame = 0
	@ frame_needed = 0, uses_anonymous_args = 0
	@ link register save eliminated.
	bx	lr
	.fnend
	.size	composite_setup_complete, .-composite_setup_complete
	.align	2
	.syntax unified
	.arm
	.fpu softvfp
	.type	f_midi_disable, %function
f_midi_disable:
	.fnstart
	@ args = 0, pretend = 0, frame = 0
	@ frame_needed = 0, uses_anonymous_args = 0
	.save {r4, lr}
	str	r4, [sp, #-8]!
	mov	r4, r0
	str	lr, [sp, #4]
	ldr	r0, [r0, #80]
	ldr	r3, [r0, #8]
	ldr	r3, [r3, #4]
	blx	r3
	ldr	r0, [r4, #84]
	ldr	r4, [sp]
	ldr	lr, [sp, #4]
	add	sp, sp, #8
	ldr	r3, [r0, #8]
	ldr	r3, [r3, #4]
	bx	r3
	.fnend
	.size	f_midi_disable, .-f_midi_disable
	.align	2
	.syntax unified
	.arm
	.fpu softvfp
	.type	f_midi_snd_free, %function
f_midi_snd_free:
	.fnstart
	@ args = 0, pretend = 0, frame = 0
	@ frame_needed = 0, uses_anonymous_args = 0
	@ link register save eliminated.
	mov	r0, #0
	bx	lr
	.fnend
	.size	f_midi_snd_free, .-f_midi_snd_free
	.align	2
	.syntax unified
	.arm
	.fpu softvfp
	.type	f_midi_in_open, %function
f_midi_in_open:
	.fnstart
	@ args = 0, pretend = 0, frame = 0
	@ frame_needed = 0, uses_anonymous_args = 0
	@ link register save eliminated.
	ldr	r3, [r0, #12]
	ldr	r2, [r0, #28]
	ldr	r2, [r2, #200]
	add	r3, r2, r3, lsl #2
	ldr	r1, [r3, #224]
	cmp	r1, #0
	beq	.L8
	str	r0, [r3, #96]
	ldr	r3, [r0, #12]
	mov	r1, #0
	mov	r0, r1
	add	r3, r3, #56
	ldr	r3, [r2, r3, lsl #2]
	strb	r1, [r3, #9]
	bx	lr
.L8:
	mvn	r0, #21
	bx	lr
	.fnend
	.size	f_midi_in_open, .-f_midi_in_open
	.align	2
	.syntax unified
	.arm
	.fpu softvfp
	.type	f_midi_out_open, %function
f_midi_out_open:
	.fnstart
	@ args = 0, pretend = 0, frame = 0
	@ frame_needed = 0, uses_anonymous_args = 0
	@ link register save eliminated.
	ldr	r3, [r0, #12]
	mov	r2, r0
	ldr	r1, [r0, #28]
	cmp	r3, #15
	ldr	r1, [r1, #200]
	addle	r3, r3, #40
	movle	r0, #0
	mvngt	r0, #21
	strle	r2, [r1, r3, lsl #2]
	bx	lr
	.fnend
	.size	f_midi_out_open, .-f_midi_out_open
	.align	2
	.syntax unified
	.arm
	.fpu softvfp
	.type	diag_write_complete, %function
diag_write_complete:
	.fnstart
	@ args = 0, pretend = 0, frame = 0
	@ frame_needed = 0, uses_anonymous_args = 0
	strd	r4, [sp, #-24]!
	.save {r4, r5, r6, r7, r8, lr}
	mov	r4, r1
	strd	r6, [sp, #8]
	str	r8, [sp, #16]
	str	lr, [sp, #20]
	ldr	r5, [r0]
	ldr	r6, [r1, #32]
	ldr	r2, [r5, #128]
	sub	ip, r2, #1
	str	ip, [r5, #128]
	ldr	ip, [r1, #44]
	cmp	ip, #0
	bne	.L13
	ldrh	r0, [r0, #20]
	ldr	ip, [r1, #4]
	cmp	ip, r0
	bcc	.L13
	udiv	lr, ip, r0
	mls	r0, r0, lr, ip
	cmp	r0, #0
	bne	.L13
	str	r2, [r5, #128]
	ldr	ip, [r1, #48]
	mov	r2, #32
	str	r0, [r1, #4]
	str	ip, [r6, #8]
	ldr	r3, [r1, #44]
	str	r3, [r6, #12]
	ldr	r0, [r5, #80]
	ldrd	r4, [sp]
	ldrd	r6, [sp, #8]
	ldr	r8, [sp, #16]
	ldr	r3, [r0, #8]
	ldr	lr, [sp, #20]
	add	sp, sp, #24
	ldr	r3, [r3, #16]
	bx	r3
.L13:
	add	r7, r5, #100
	mov	r0, r7
	bl	_raw_spin_lock_irqsave
	ldr	r2, [r5, #96]
	add	ip, r4, #36
	add	r3, r5, #92
	mov	r1, r0
	str	ip, [r5, #96]
	str	r3, [r4, #36]
	str	r2, [r4, #40]
	str	ip, [r2]
	ldr	r3, [r4, #4]
	cmp	r3, #0
	bne	.L26
.L14:
	mov	r0, r7
	bl	_raw_spin_unlock_irqrestore
	ldr	r3, [r5, #116]
	cmp	r3, #0
	beq	.L12
	ldr	lr, [r3, #12]
	cmp	lr, #0
	beq	.L12
	mov	r2, r6
	ldr	r0, [r3, #16]
	mov	r1, #2
	ldrd	r4, [sp]
	mov	r3, lr
	ldrd	r6, [sp, #8]
	ldr	r8, [sp, #16]
	ldr	lr, [sp, #20]
	add	sp, sp, #24
	bx	r3	@ indirect register sibling call
.L26:
	ldr	r3, [r4, #48]
	str	r3, [r6, #8]
	ldr	r3, [r4, #44]
	str	r3, [r6, #12]
	b	.L14
.L12:
	ldrd	r4, [sp]
	ldrd	r6, [sp, #8]
	ldr	r8, [sp, #16]
	add	sp, sp, #20
	ldr	pc, [sp], #4
	.fnend
	.size	diag_write_complete, .-diag_write_complete
	.align	2
	.syntax unified
	.arm
	.fpu softvfp
	.type	diag_read_complete, %function
diag_read_complete:
	.fnstart
	@ args = 0, pretend = 0, frame = 0
	@ frame_needed = 0, uses_anonymous_args = 0
	strd	r4, [sp, #-24]!
	.save {r4, r5, r6, r7, r8, lr}
	mov	r5, r1
	strd	r6, [sp, #8]
	str	r8, [sp, #16]
	str	lr, [sp, #20]
	ldr	r6, [r1, #32]
	ldr	r3, [r1, #48]
	ldr	r4, [r0]
	str	r3, [r6, #8]
	ldr	r3, [r1, #44]
	add	r7, r4, #100
	mov	r0, r7
	str	r3, [r6, #12]
	bl	_raw_spin_lock_irqsave
	ldr	r3, [r4, #88]
	add	r2, r5, #36
	add	ip, r4, #84
	mov	r1, r0
	mov	r0, r7
	str	r2, [r4, #88]
	str	ip, [r5, #36]
	str	r3, [r5, #40]
	str	r2, [r3]
	bl	_raw_spin_unlock_irqrestore
	ldr	r1, [r4, #116]
	ldr	r3, [r4, #124]
	cmp	r1, #0
	add	r3, r3, #1
	str	r3, [r4, #124]
	beq	.L27
	ldr	r3, [r1, #12]
	cmp	r3, #0
	beq	.L27
	mov	r2, r6
	ldr	r0, [r1, #16]
	mov	r1, #3
	ldrd	r4, [sp]
	ldrd	r6, [sp, #8]
	ldr	r8, [sp, #16]
	ldr	lr, [sp, #20]
	add	sp, sp, #24
	bx	r3	@ indirect register sibling call
.L27:
	ldrd	r4, [sp]
	ldrd	r6, [sp, #8]
	ldr	r8, [sp, #16]
	add	sp, sp, #20
	ldr	pc, [sp], #4
	.fnend
	.size	diag_read_complete, .-diag_read_complete
	.align	2
	.syntax unified
	.arm
	.fpu softvfp
	.type	diag_function_disable, %function
diag_function_disable:
	.fnstart
	@ args = 0, pretend = 0, frame = 0
	@ frame_needed = 0, uses_anonymous_args = 0
	strd	r4, [sp, #-16]!
	.save {r4, r5, r6, lr}
	add	r5, r0, #100
	mov	r4, r0
	str	r6, [sp, #8]
	mov	r0, r5
	mov	r6, #0
	str	lr, [sp, #12]
	bl	_raw_spin_lock_irqsave
	mov	r1, r0
	str	r6, [r4, #104]
	mov	r0, r5
	bl	_raw_spin_unlock_irqrestore
	ldr	r3, [r4, #116]
	cmp	r3, r6
	beq	.L37
	ldr	r5, [r3, #12]
	cmp	r5, r6
	beq	.L37
	mov	r2, r6
	mov	r1, #1
	ldr	r0, [r3, #16]
	blx	r5
.L37:
	ldr	r0, [r4, #80]
	mov	r5, #0
	ldr	r3, [r0, #8]
	ldr	r3, [r3, #4]
	blx	r3
	ldr	r3, [r4, #80]
	str	r5, [r3]
	ldr	r0, [r4, #76]
	ldr	r3, [r0, #8]
	ldr	r3, [r3, #4]
	blx	r3
	ldr	r3, [r4, #76]
	str	r5, [r3]
	ldr	r3, [r4, #116]
	cmp	r3, r5
	strne	r5, [r3, #20]
	ldrd	r4, [sp]
	ldr	r6, [sp, #8]
	add	sp, sp, #12
	ldr	pc, [sp], #4
	.fnend
	.size	diag_function_disable, .-diag_function_disable
	.align	2
	.syntax unified
	.arm
	.fpu softvfp
	.type	debug_reset_stats, %function
debug_reset_stats:
	.fnstart
	@ args = 0, pretend = 0, frame = 0
	@ frame_needed = 0, uses_anonymous_args = 0
	.save {lr}
	str	lr, [sp, #-4]!
	movw	lr, #:lower16:.LANCHOR0
	movt	lr, #:upper16:.LANCHOR0
	ldr	r3, [lr]
	cmp	lr, r3
	beq	.L51
	sub	r3, r3, #4
	mov	ip, #0
.L50:
	ldr	r1, [r3, #20]
	cmp	r1, #0
	beq	.L52
	str	ip, [r1, #120]
	str	ip, [r1, #124]
	str	ip, [r1, #128]
	ldr	r3, [r3, #4]
	cmp	lr, r3
	sub	r3, r3, #4
	bne	.L50
.L51:
	mov	r0, r2
	ldr	pc, [sp], #4
.L52:
	ldr	r3, [r3, #4]
	cmp	lr, r3
	sub	r3, r3, #4
	bne	.L50
	mov	r0, r2
	ldr	pc, [sp], #4
	.fnend
	.size	debug_reset_stats, .-debug_reset_stats
	.align	2
	.syntax unified
	.arm
	.fpu softvfp
	.type	debug_open, %function
debug_open:
	.fnstart
	@ args = 0, pretend = 0, frame = 0
	@ frame_needed = 0, uses_anonymous_args = 0
	@ link register save eliminated.
	mov	r0, #0
	bx	lr
	.fnend
	.size	debug_open, .-debug_open
	.align	2
	.syntax unified
	.arm
	.fpu softvfp
	.type	qdss_ctrl_write_complete, %function
qdss_ctrl_write_complete:
	.fnstart
	@ args = 0, pretend = 0, frame = 0
	@ frame_needed = 0, uses_anonymous_args = 0
	strd	r4, [sp, #-24]!
	.save {r4, r5, r6, r7, r8, lr}
	mov	r4, r1
	strd	r6, [sp, #8]
	str	r8, [sp, #16]
	str	lr, [sp, #20]
	ldr	r5, [r0]
	ldr	r2, [r1, #44]
	ldr	r6, [r1, #32]
	cmp	r2, #0
	bne	.L58
	ldrh	r2, [r0, #20]
	ldr	r0, [r1, #4]
	cmp	r0, r2
	bcc	.L58
	udiv	ip, r0, r2
	mls	r2, r2, ip, r0
	cmp	r2, #0
	bne	.L58
	ldr	r0, [r1, #48]
	str	r2, [r1, #4]
	mov	r2, #32
	str	r0, [r6, #8]
	ldr	r3, [r1, #44]
	str	r3, [r6, #12]
	ldr	r0, [r5, #96]
	ldrd	r4, [sp]
	ldrd	r6, [sp, #8]
	ldr	r8, [sp, #16]
	ldr	r3, [r0, #8]
	ldr	lr, [sp, #20]
	add	sp, sp, #24
	ldr	r3, [r3, #16]
	bx	r3
.L58:
	add	r7, r5, #180
	mov	r0, r7
	bl	_raw_spin_lock_irqsave
	ldr	r2, [r5, #144]
	add	ip, r4, #36
	add	r3, r5, #140
	mov	r1, r0
	str	ip, [r5, #144]
	str	r3, [r4, #36]
	str	r2, [r4, #40]
	str	ip, [r2]
	ldr	r3, [r4, #4]
	cmp	r3, #0
	bne	.L65
.L59:
	mov	r0, r7
	bl	_raw_spin_unlock_irqrestore
	ldr	lr, [r5, #116]
	cmp	lr, #0
	beq	.L57
	mov	r2, r6
	mov	ip, lr
	ldr	r0, [r5, #120]
	ldrd	r4, [sp]
	mov	r3, #0
	mov	r1, #4
	ldrd	r6, [sp, #8]
	ldr	r8, [sp, #16]
	ldr	lr, [sp, #20]
	add	sp, sp, #24
	bx	ip	@ indirect register sibling call
.L65:
	ldr	r3, [r4, #48]
	str	r3, [r6, #8]
	ldr	r3, [r4, #44]
	str	r3, [r6, #12]
	b	.L59
.L57:
	ldrd	r4, [sp]
	ldrd	r6, [sp, #8]
	ldr	r8, [sp, #16]
	add	sp, sp, #20
	ldr	pc, [sp], #4
	.fnend
	.size	qdss_ctrl_write_complete, .-qdss_ctrl_write_complete
	.align	2
	.syntax unified
	.arm
	.fpu softvfp
	.type	qdss_ctrl_read_complete, %function
qdss_ctrl_read_complete:
	.fnstart
	@ args = 0, pretend = 0, frame = 0
	@ frame_needed = 0, uses_anonymous_args = 0
	strd	r4, [sp, #-24]!
	.save {r4, r5, r6, r7, r8, lr}
	mov	r4, r1
	strd	r6, [sp, #8]
	str	r8, [sp, #16]
	str	lr, [sp, #20]
	ldr	r6, [r1, #32]
	ldr	r3, [r1, #48]
	ldr	r5, [r0]
	str	r3, [r6, #8]
	ldr	r3, [r1, #44]
	add	r7, r5, #180
	mov	r0, r7
	str	r3, [r6, #12]
	bl	_raw_spin_lock_irqsave
	ldr	r3, [r5, #136]
	add	r2, r4, #36
	add	ip, r5, #132
	mov	r1, r0
	mov	r0, r7
	str	r2, [r5, #136]
	str	ip, [r4, #36]
	str	r3, [r4, #40]
	str	r2, [r3]
	bl	_raw_spin_unlock_irqrestore
	ldr	lr, [r5, #116]
	cmp	lr, #0
	beq	.L66
	mov	r2, r6
	mov	ip, lr
	ldr	r0, [r5, #120]
	ldrd	r4, [sp]
	mov	r3, #0
	mov	r1, #2
	ldrd	r6, [sp, #8]
	ldr	r8, [sp, #16]
	ldr	lr, [sp, #20]
	add	sp, sp, #24
	bx	ip	@ indirect register sibling call
.L66:
	ldrd	r4, [sp]
	ldrd	r6, [sp, #8]
	ldr	r8, [sp, #16]
	add	sp, sp, #20
	ldr	pc, [sp], #4
	.fnend
	.size	qdss_ctrl_read_complete, .-qdss_ctrl_read_complete
	.align	2
	.syntax unified
	.arm
	.fpu softvfp
	.type	rmnet_txcommand_complete, %function
rmnet_txcommand_complete:
	.fnstart
	@ args = 0, pretend = 0, frame = 0
	@ frame_needed = 0, uses_anonymous_args = 0
	strd	r4, [sp, #-16]!
	.save {r4, r5, r6, lr}
	str	r6, [sp, #8]
	str	lr, [sp, #12]
	ldr	r4, [r1, #32]
	add	r5, r4, #156
	mov	r0, r5
	bl	_raw_spin_lock
	ldr	r3, [r4, #432]
	mov	r0, r5
	add	r3, r3, #1
	str	r3, [r4, #432]
	ldrd	r4, [sp]
	ldr	r6, [sp, #8]
	ldr	lr, [sp, #12]
	add	sp, sp, #16
	b	_raw_spin_unlock
	.fnend
	.size	rmnet_txcommand_complete, .-rmnet_txcommand_complete
	.align	2
	.syntax unified
	.arm
	.fpu softvfp
	.type	rmnet_smd_debug_reset_stats, %function
rmnet_smd_debug_reset_stats:
	.fnstart
	@ args = 0, pretend = 0, frame = 0
	@ frame_needed = 0, uses_anonymous_args = 0
	strd	r4, [sp, #-16]!
	.save {r4, r5, r6, lr}
	str	r6, [sp, #8]
	mov	r6, r2
	str	lr, [sp, #12]
	ldr	r4, [r0, #124]
	add	r5, r4, #156
	mov	r0, r5
	bl	_raw_spin_lock_irqsave
	mov	r3, #0
	mov	r1, r0
	mov	r0, r5
	str	r3, [r4, #416]
	str	r3, [r4, #420]
	str	r3, [r4, #424]
	str	r3, [r4, #428]
	str	r3, [r4, #432]
	str	r3, [r4, #436]
	str	r3, [r4, #440]
	str	r3, [r4, #444]
	bl	_raw_spin_unlock_irqrestore
	ldrd	r4, [sp]
	mov	r0, r6
	ldr	r6, [sp, #8]
	add	sp, sp, #12
	ldr	pc, [sp], #4
	.fnend
	.size	rmnet_smd_debug_reset_stats, .-rmnet_smd_debug_reset_stats
	.align	2
	.syntax unified
	.arm
	.fpu softvfp
	.type	rmnet_smd_debug_open, %function
rmnet_smd_debug_open:
	.fnstart
	@ args = 0, pretend = 0, frame = 0
	@ frame_needed = 0, uses_anonymous_args = 0
	@ link register save eliminated.
	ldr	r3, [r0, #348]
	mov	r0, #0
	str	r3, [r1, #124]
	bx	lr
	.fnend
	.size	rmnet_smd_debug_open, .-rmnet_smd_debug_open
	.align	2
	.syntax unified
	.arm
	.fpu softvfp
	.type	rmnet_sdio_set_modem_cbits_w, %function
rmnet_sdio_set_modem_cbits_w:
	.fnstart
	@ args = 0, pretend = 0, frame = 0
	@ frame_needed = 0, uses_anonymous_args = 0
	@ link register save eliminated.
	ldr	r3, [r0, #-12]
	bx	lr
	.fnend
	.size	rmnet_sdio_set_modem_cbits_w, .-rmnet_sdio_set_modem_cbits_w
	.align	2
	.syntax unified
	.arm
	.fpu softvfp
	.type	rmnet_sdio_disconnect_work, %function
rmnet_sdio_disconnect_work:
	.fnstart
	@ args = 0, pretend = 0, frame = 0
	@ frame_needed = 0, uses_anonymous_args = 0
	@ link register save eliminated.
	bx	lr
	.fnend
	.size	rmnet_sdio_disconnect_work, .-rmnet_sdio_disconnect_work
	.align	2
	.syntax unified
	.arm
	.fpu softvfp
	.type	rmnet_sdio_reset_stats, %function
rmnet_sdio_reset_stats:
	.fnstart
	@ args = 0, pretend = 0, frame = 0
	@ frame_needed = 0, uses_anonymous_args = 0
	@ link register save eliminated.
	ldr	r3, [r0, #124]
	mov	r1, #0
	mov	r0, r2
	str	r1, [r3, #316]
	str	r1, [r3, #344]
	str	r1, [r3, #348]
	str	r1, [r3, #352]
	str	r1, [r3, #356]
	str	r1, [r3, #360]
	bx	lr
	.fnend
	.size	rmnet_sdio_reset_stats, .-rmnet_sdio_reset_stats
	.align	2
	.syntax unified
	.arm
	.fpu softvfp
	.type	rmnet_mux_suspend, %function
rmnet_mux_suspend:
	.fnstart
	@ args = 0, pretend = 0, frame = 0
	@ frame_needed = 0, uses_anonymous_args = 0
	@ link register save eliminated.
	ldr	r3, [r0, #360]
	cmp	r3, #0
	beq	.L77
	ldr	r3, [r0, #340]
	bic	r3, r3, #2
	str	r3, [r0, #340]
.L77:
	bx	lr
	.fnend
	.size	rmnet_mux_suspend, .-rmnet_mux_suspend
	.align	2
	.syntax unified
	.arm
	.fpu softvfp
	.type	rmnet_mux_unbind, %function
rmnet_mux_unbind:
	.fnstart
	@ args = 0, pretend = 0, frame = 0
	@ frame_needed = 0, uses_anonymous_args = 0
	@ link register save eliminated.
	mov	r3, #0
	str	r3, [r1, #164]
	bx	lr
	.fnend
	.size	rmnet_mux_unbind, .-rmnet_mux_unbind
	.align	2
	.syntax unified
	.arm
	.fpu softvfp
	.type	rmnet_mux_reset_stats, %function
rmnet_mux_reset_stats:
	.fnstart
	@ args = 0, pretend = 0, frame = 0
	@ frame_needed = 0, uses_anonymous_args = 0
	@ link register save eliminated.
	ldr	r3, [r0, #124]
	mov	r1, #0
	mov	r0, r2
	str	r1, [r3, #300]
	str	r1, [r3, #388]
	str	r1, [r3, #392]
	str	r1, [r3, #396]
	str	r1, [r3, #400]
	str	r1, [r3, #404]
	str	r1, [r3, #408]
	str	r1, [r3, #412]
	bx	lr
	.fnend
	.size	rmnet_mux_reset_stats, .-rmnet_mux_reset_stats
	.align	2
	.global	usb_rmnet_mux_ctrl_release
	.syntax unified
	.arm
	.fpu softvfp
	.type	usb_rmnet_mux_ctrl_release, %function
usb_rmnet_mux_ctrl_release:
	.fnstart
	@ args = 0, pretend = 0, frame = 0
	@ frame_needed = 0, uses_anonymous_args = 0
	strd	r4, [sp, #-24]!
	.save {r4, r5, r6, r7, r8, lr}
	mov	r5, r1
	mov	r4, #0
	strd	r6, [sp, #8]
	str	r8, [sp, #16]
	str	lr, [sp, #20]
	ldr	r7, [r1, #124]
	add	r6, r7, #356
	mov	r0, r6
	bl	_raw_spin_lock_irqsave
	mov	r1, r0
	str	r4, [r7, #344]
	mov	r0, r6
	str	r4, [r5, #124]
	bl	_raw_spin_unlock_irqrestore
	ldrd	r6, [sp, #8]
	mov	r0, r4
	ldrd	r4, [sp]
	ldr	r8, [sp, #16]
	add	sp, sp, #20
	ldr	pc, [sp], #4
	.fnend
	.size	usb_rmnet_mux_ctrl_release, .-usb_rmnet_mux_ctrl_release
	.align	2
	.syntax unified
	.arm
	.fpu softvfp
	.type	audio_disable, %function
audio_disable:
	.fnstart
	@ args = 0, pretend = 0, frame = 0
	@ frame_needed = 0, uses_anonymous_args = 0
	ldrb	r3, [r0, #144]	@ zero_extendqisi2
	cmp	r3, #0
	bxeq	lr
	.save {r4, lr}
	str	r4, [sp, #-8]!
	mov	r4, r0
	str	lr, [sp, #4]
	ldr	r0, [r0, #96]
	ldr	r3, [r0, #8]
	ldr	r3, [r3, #4]
	blx	r3
	mov	r3, #0
	strb	r3, [r4, #144]
	ldr	r4, [sp]
	add	sp, sp, #4
	ldr	pc, [sp], #4
	.fnend
	.size	audio_disable, .-audio_disable
	.align	2
	.syntax unified
	.arm
	.fpu softvfp
	.type	audio_pcm_close, %function
audio_pcm_close:
	.fnstart
	@ args = 0, pretend = 0, frame = 0
	@ frame_needed = 0, uses_anonymous_args = 0
	strd	r4, [sp, #-16]!
	.save {r4, r5, r6, lr}
	mov	r4, #0
	str	r6, [sp, #8]
	str	lr, [sp, #12]
	ldr	r6, [r0, #8]
	add	r5, r6, #100
	mov	r0, r5
	bl	_raw_spin_lock_irqsave
	mov	r1, r0
	str	r4, [r6, #84]
	mov	r0, r5
	bl	_raw_spin_unlock_irqrestore
	ldr	r6, [sp, #8]
	mov	r0, r4
	ldrd	r4, [sp]
	add	sp, sp, #12
	ldr	pc, [sp], #4
	.fnend
	.size	audio_pcm_close, .-audio_pcm_close
	.align	2
	.syntax unified
	.arm
	.fpu softvfp
	.type	audio_pcm_prepare, %function
audio_pcm_prepare:
	.fnstart
	@ args = 0, pretend = 0, frame = 0
	@ frame_needed = 0, uses_anonymous_args = 0
	mov	ip, r0
	.save {r4, lr}
	str	r4, [sp, #-8]!
	str	lr, [sp, #4]
	ldr	r1, [ip, #208]
	mov	lr, #0
	mov	r0, lr
	ldr	r4, [r1, #68]
	ldr	r2, [r1, #88]
	ldr	r3, [r1, #208]
	mul	r2, r2, r4
	str	lr, [r3, #120]
	lsr	r2, r2, #3
	str	r2, [r3, #116]
	ldr	r2, [r1, #548]
	str	r2, [r3, #104]
	ldr	ip, [ip, #208]
	ldr	lr, [ip, #76]
	ldr	r1, [ip, #88]
	str	r2, [r3, #112]
	mul	r1, r1, lr
	add	r2, r2, r1, lsr #3
	str	r2, [r3, #108]
	ldr	r4, [sp]
	add	sp, sp, #4
	ldr	pc, [sp], #4
	.fnend
	.size	audio_pcm_prepare, .-audio_pcm_prepare
	.align	2
	.syntax unified
	.arm
	.fpu softvfp
	.type	audio_pcm_pointer, %function
audio_pcm_pointer:
	.fnstart
	@ args = 0, pretend = 0, frame = 0
	@ frame_needed = 0, uses_anonymous_args = 0
	@ link register save eliminated.
	ldr	r3, [r0, #208]
	ldr	r0, [r3, #88]
	ldr	r2, [r3, #208]
	ldr	r1, [r2, #104]
	ldr	r3, [r2, #112]
	sub	r3, r3, r1
	lsl	r3, r3, #3
	udiv	r0, r3, r0
	bx	lr
	.fnend
	.size	audio_pcm_pointer, .-audio_pcm_pointer
	.align	2
	.syntax unified
	.arm
	.fpu softvfp
	.type	ffs_ep0_ioctl, %function
ffs_ep0_ioctl:
	.fnstart
	@ args = 0, pretend = 0, frame = 0
	@ frame_needed = 0, uses_anonymous_args = 0
	movw	ip, #26496
	ldr	r0, [r0, #124]
	cmp	r1, ip
	beq	.L114
	ldr	r0, [r0]
	cmp	r0, #0
	beq	.L108
	ldr	r3, [r0]
	ldr	r3, [r3, #24]
	cmp	r3, #0
	beq	.L108
	bx	r3
.L114:
	mov	r3, r2
	ldr	r2, [r0, #136]
	cmp	r2, #0
	beq	.L105
	.save {lr}
	str	lr, [sp, #-4]!
	ldr	r1, [r2, #8]
	ldr	lr, [r2, #44]
	ldrh	r1, [r1, #182]
	cmp	r1, #0
	beq	.L106
	uxtb	r2, r3
	mov	ip, lr
.L104:
	mov	r3, ip
	ldrsh	r0, [r3], #2
	cmp	r0, #0
	blt	.L103
	cmp	r0, r2
	beq	.L115
.L103:
	subs	r1, r1, #1
	mov	ip, r3
	bne	.L104
.L106:
	mvn	r0, #32
	ldr	pc, [sp], #4
.L115:
	sub	r0, ip, lr
	asr	r0, r0, #1
	ldr	pc, [sp], #4
.L108:
	mvn	r0, #24
	bx	lr
.L105:
	mvn	r0, #18
	bx	lr
	.fnend
	.size	ffs_ep0_ioctl, .-ffs_ep0_ioctl
	.align	2
	.syntax unified
	.arm
	.fpu softvfp
	.type	gs_write_room, %function
gs_write_room:
	.fnstart
	@ args = 0, pretend = 0, frame = 0
	@ frame_needed = 0, uses_anonymous_args = 0
	strd	r4, [sp, #-16]!
	.save {r4, r5, r6, lr}
	str	r6, [sp, #8]
	str	lr, [sp, #12]
	ldr	r4, [r0, #280]
	mov	r0, r4
	bl	_raw_spin_lock_irqsave
	ldr	r3, [r4, #4]
	mov	r1, r0
	cmp	r3, #0
	moveq	r5, r3
	beq	.L117
	ldr	r2, [r4, #92]
	ldr	r3, [r4, #100]
	ldr	r0, [r4, #104]
	add	r3, r3, r2
	sub	r3, r3, r0
	sub	r3, r3, #1
	udiv	r5, r3, r2
	mls	r5, r2, r5, r3
.L117:
	mov	r0, r4
	bl	_raw_spin_unlock_irqrestore
	ldr	r6, [sp, #8]
	mov	r0, r5
	ldrd	r4, [sp]
	add	sp, sp, #12
	ldr	pc, [sp], #4
	.fnend
	.size	gs_write_room, .-gs_write_room
	.align	2
	.syntax unified
	.arm
	.fpu softvfp
	.type	gs_chars_in_buffer, %function
gs_chars_in_buffer:
	.fnstart
	@ args = 0, pretend = 0, frame = 0
	@ frame_needed = 0, uses_anonymous_args = 0
	.save {r4, lr}
	str	r4, [sp, #-8]!
	str	lr, [sp, #4]
	ldr	r4, [r0, #280]
	mov	r0, r4
	bl	_raw_spin_lock_irqsave
	ldr	r2, [r4, #92]
	mov	r1, r0
	mov	r0, r4
	ldr	ip, [r4, #100]
	ldr	r3, [r4, #104]
	add	r3, r3, r2
	sub	r3, r3, ip
	udiv	r4, r3, r2
	mls	r4, r2, r4, r3
	bl	_raw_spin_unlock_irqrestore
	mov	r0, r4
	ldr	r4, [sp]
	add	sp, sp, #4
	ldr	pc, [sp], #4
	.fnend
	.size	gs_chars_in_buffer, .-gs_chars_in_buffer
	.align	2
	.syntax unified
	.arm
	.fpu softvfp
	.type	gs_break_ctl, %function
gs_break_ctl:
	.fnstart
	@ args = 0, pretend = 0, frame = 0
	@ frame_needed = 0, uses_anonymous_args = 0
	strd	r4, [sp, #-16]!
	.save {r4, r5, r6, lr}
	str	r6, [sp, #8]
	mov	r6, r1
	str	lr, [sp, #12]
	ldr	r5, [r0, #280]
	mov	r0, r5
	bl	_raw_spin_lock_irq
	ldr	r0, [r5, #4]
	cmp	r0, #0
	moveq	r4, r0
	beq	.L123
	ldr	r4, [r0, #116]
	cmp	r4, #0
	beq	.L123
	mov	r1, r6
	blx	r4
	mov	r4, r0
.L123:
	mov	r0, r5
	bl	_raw_spin_unlock_irq
	ldr	r6, [sp, #8]
	mov	r0, r4
	ldrd	r4, [sp]
	add	sp, sp, #12
	ldr	pc, [sp], #4
	.fnend
	.size	gs_break_ctl, .-gs_break_ctl
	.align	2
	.syntax unified
	.arm
	.fpu softvfp
	.type	gs_tiocmget, %function
gs_tiocmget:
	.fnstart
	@ args = 0, pretend = 0, frame = 0
	@ frame_needed = 0, uses_anonymous_args = 0
	strd	r4, [sp, #-16]!
	.save {r4, r5, r6, lr}
	str	r6, [sp, #8]
	str	lr, [sp, #12]
	ldr	r6, [r0, #280]
	mov	r0, r6
	bl	_raw_spin_lock_irq
	ldr	r5, [r6, #4]
	cmp	r5, #0
	mvneq	r4, #18
	beq	.L128
	ldr	r4, [r5, #100]
	cmp	r4, #0
	beq	.L129
	mov	r0, r5
	blx	r4
	cmp	r0, #0
	movne	r4, #2
	moveq	r4, #0
.L129:
	ldr	r3, [r5, #104]
	cmp	r3, #0
	beq	.L131
	mov	r0, r5
	blx	r3
	cmp	r0, #0
	orrne	r4, r4, #4
.L131:
	ldrh	r3, [r5, #96]
	tst	r3, #64
	orrne	r4, r4, #64
	tst	r3, #128
	orrne	r4, r4, #128
.L128:
	mov	r0, r6
	bl	_raw_spin_unlock_irq
	ldr	r6, [sp, #8]
	mov	r0, r4
	ldrd	r4, [sp]
	add	sp, sp, #12
	ldr	pc, [sp], #4
	.fnend
	.size	gs_tiocmget, .-gs_tiocmget
	.align	2
	.syntax unified
	.arm
	.fpu softvfp
	.type	gs_tiocmset, %function
gs_tiocmset:
	.fnstart
	@ args = 0, pretend = 0, frame = 0
	@ frame_needed = 0, uses_anonymous_args = 0
	strd	r4, [sp, #-32]!
	.save {r4, r5, r6, r7, r8, r9, r10, lr}
	strd	r6, [sp, #8]
	mov	r6, r2
	strd	r8, [sp, #16]
	mov	r8, r1
	str	r10, [sp, #24]
	str	lr, [sp, #28]
	ldr	r7, [r0, #280]
	mov	r0, r7
	bl	_raw_spin_lock_irq
	ldr	r4, [r7, #4]
	cmp	r4, #0
	beq	.L154
	ands	r5, r8, #128
	and	r9, r6, #128
	beq	.L151
	ldr	r5, [r4, #124]
	cmp	r5, #0
	beq	.L152
	ldrh	r3, [r4, #96]
	mov	r1, #1
	mov	r0, r4
	orr	r3, r3, #128
	strh	r3, [r4, #96]	@ movhi
	blx	r5
	mov	r5, r0
.L151:
	cmp	r9, #0
	beq	.L152
	ldr	r2, [r4, #124]
	cmp	r2, #0
	beq	.L152
	ldrh	r3, [r4, #96]
	mov	r1, #0
	mov	r0, r4
	bic	r3, r3, #128
	strh	r3, [r4, #96]	@ movhi
	blx	r2
	mov	r5, r0
.L152:
	tst	r8, #64
	and	r6, r6, #64
	bne	.L176
.L153:
	cmp	r6, #0
	beq	.L150
	ldr	r2, [r4, #120]
	cmp	r2, #0
	beq	.L150
	ldrh	r3, [r4, #96]
	mov	r0, r4
	mov	r1, #0
	bic	r3, r3, #64
	strh	r3, [r4, #96]	@ movhi
	blx	r2
	mov	r5, r0
.L150:
	mov	r0, r7
	bl	_raw_spin_unlock_irq
	ldrd	r6, [sp, #8]
	mov	r0, r5
	ldrd	r4, [sp]
	ldrd	r8, [sp, #16]
	ldr	r10, [sp, #24]
	add	sp, sp, #28
	ldr	pc, [sp], #4
.L176:
	ldr	r2, [r4, #120]
	cmp	r2, #0
	beq	.L150
	ldrh	r3, [r4, #96]
	mov	r1, #1
	mov	r0, r4
	orr	r3, r3, #64
	strh	r3, [r4, #96]	@ movhi
	blx	r2
	mov	r5, r0
	b	.L153
.L154:
	mvn	r5, #18
	b	.L150
	.fnend
	.size	gs_tiocmset, .-gs_tiocmset
	.align	2
	.syntax unified
	.arm
	.fpu softvfp
	.type	debug_write_reset, %function
debug_write_reset:
	.fnstart
	@ args = 0, pretend = 0, frame = 0
	@ frame_needed = 0, uses_anonymous_args = 0
	strd	r4, [sp, #-16]!
	.save {r4, r5, r6, lr}
	mov	r5, r2
	str	r6, [sp, #8]
	str	lr, [sp, #12]
	ldr	r4, [r0, #124]
	mov	r0, r4
	bl	_raw_spin_lock_irqsave
	mov	r3, #0
	mov	r1, r0
	mov	r0, r4
	str	r3, [r4, #128]
	str	r3, [r4, #132]
	str	r3, [r4, #136]
	str	r3, [r4, #140]
	bl	_raw_spin_unlock_irqrestore
	ldr	r6, [sp, #8]
	mov	r0, r5
	ldrd	r4, [sp]
	add	sp, sp, #12
	ldr	pc, [sp], #4
	.fnend
	.size	debug_write_reset, .-debug_write_reset
	.align	2
	.syntax unified
	.arm
	.fpu softvfp
	.type	debug_sdio_reset_stats, %function
debug_sdio_reset_stats:
	.fnstart
	@ args = 0, pretend = 0, frame = 0
	@ frame_needed = 0, uses_anonymous_args = 0
	strd	r4, [sp, #-32]!
	.save {r4, r5, r6, r7, r8, r9, r10, lr}
	strd	r6, [sp, #8]
	movw	r7, #:lower16:.LANCHOR1
	movt	r7, #:upper16:.LANCHOR1
	strd	r8, [sp, #16]
	ldr	r3, [r7]
	str	r10, [sp, #24]
	mov	r10, r2
	str	lr, [sp, #28]
	cmp	r3, #0
	beq	.L180
	mov	r5, #0
	add	r6, r7, #4
	mov	r9, r5
.L181:
	ldr	r4, [r6, #24]
	add	r5, r5, #1
	add	r6, r6, #108
	add	r8, r4, #4
	mov	r0, r8
	bl	_raw_spin_lock_irqsave
	mov	r1, r0
	str	r9, [r4, #180]
	mov	r0, r8
	str	r9, [r4, #184]
	bl	_raw_spin_unlock_irqrestore
	ldr	r3, [r7]
	cmp	r5, r3
	bcc	.L181
.L180:
	mov	r0, r10
	ldrd	r4, [sp]
	ldrd	r6, [sp, #8]
	ldrd	r8, [sp, #16]
	ldr	r10, [sp, #24]
	add	sp, sp, #28
	ldr	pc, [sp], #4
	.fnend
	.size	debug_sdio_reset_stats, .-debug_sdio_reset_stats
	.align	2
	.syntax unified
	.arm
	.fpu softvfp
	.type	debug_smd_reset_stats, %function
debug_smd_reset_stats:
	.fnstart
	@ args = 0, pretend = 0, frame = 0
	@ frame_needed = 0, uses_anonymous_args = 0
	strd	r4, [sp, #-32]!
	.save {r4, r5, r6, r7, r8, r9, r10, lr}
	strd	r6, [sp, #8]
	movw	r7, #:lower16:.LANCHOR1
	movt	r7, #:upper16:.LANCHOR1
	strd	r8, [sp, #16]
	ldr	r3, [r7, #220]
	str	r10, [sp, #24]
	mov	r10, r2
	str	lr, [sp, #28]
	cmp	r3, #0
	beq	.L188
	mov	r5, #0
	add	r6, r7, #224
	mov	r9, r5
.L189:
	ldr	r4, [r6, #24]
	add	r5, r5, #1
	add	r6, r6, #108
	add	r8, r4, #4
	mov	r0, r8
	bl	_raw_spin_lock_irqsave
	mov	r1, r0
	str	r9, [r4, #164]
	mov	r0, r8
	str	r9, [r4, #168]
	bl	_raw_spin_unlock_irqrestore
	ldr	r3, [r7, #220]
	cmp	r5, r3
	bcc	.L189
.L188:
	mov	r0, r10
	ldrd	r4, [sp]
	ldrd	r6, [sp, #8]
	ldrd	r8, [sp, #16]
	ldr	r10, [sp, #24]
	add	sp, sp, #28
	ldr	pc, [sp], #4
	.fnend
	.size	debug_smd_reset_stats, .-debug_smd_reset_stats
	.align	2
	.syntax unified
	.arm
	.fpu softvfp
	.type	gbam_wake_cb, %function
gbam_wake_cb:
	.fnstart
	@ args = 0, pretend = 0, frame = 0
	@ frame_needed = 0, uses_anonymous_args = 0
	@ link register save eliminated.
	ldr	r3, [r0, #16]
	ldr	r3, [r3, #120]
	ldr	r0, [r3]
	ldr	r3, [r0]
	ldr	r3, [r3, #4]
	cmp	r3, #0
	beq	.L196
	bx	r3
.L196:
	mvn	r0, #94
	bx	lr
	.fnend
	.size	gbam_wake_cb, .-gbam_wake_cb
	.align	2
	.syntax unified
	.arm
	.fpu softvfp
	.type	gbam_reset_stats, %function
gbam_reset_stats:
	.fnstart
	@ args = 0, pretend = 0, frame = 0
	@ frame_needed = 0, uses_anonymous_args = 0
	movw	r3, #:lower16:.LANCHOR1
	strd	r4, [sp, #-24]!
	.save {r4, r5, r6, r7, r8, lr}
	movt	r3, #:upper16:.LANCHOR1
	strd	r6, [sp, #8]
	mov	r7, r2
	str	r8, [sp, #16]
	str	lr, [sp, #20]
	ldr	r2, [r3, #440]
	cmp	r2, #0
	ble	.L198
	ldr	r4, [r3, #444]
	cmp	r4, #0
	beq	.L198
	add	r5, r4, #4
	add	r6, r4, #8
	mov	r0, r5
	bl	_raw_spin_lock_irqsave
	mov	r8, r0
	mov	r0, r6
	bl	_raw_spin_lock
	mov	r3, #0
	mov	r0, r6
	str	r3, [r4, #240]
	str	r3, [r4, #244]
	str	r3, [r4, #248]
	str	r3, [r4, #260]
	str	r3, [r4, #264]
	str	r3, [r4, #268]
	str	r3, [r4, #272]
	str	r3, [r4, #276]
	str	r3, [r4, #280]
	bl	_raw_spin_unlock
	mov	r1, r8
	mov	r0, r5
	bl	_raw_spin_unlock_irqrestore
.L198:
	mov	r0, r7
	ldrd	r4, [sp]
	ldrd	r6, [sp, #8]
	ldr	r8, [sp, #16]
	add	sp, sp, #20
	ldr	pc, [sp], #4
	.fnend
	.size	gbam_reset_stats, .-gbam_reset_stats
	.align	2
	.syntax unified
	.arm
	.fpu softvfp
	.type	gsmd_ctrl_reset_stats, %function
gsmd_ctrl_reset_stats:
	.fnstart
	@ args = 0, pretend = 0, frame = 0
	@ frame_needed = 0, uses_anonymous_args = 0
	strd	r4, [sp, #-32]!
	.save {r4, r5, r6, r7, r8, r9, r10, lr}
	ldr	r5, .L212
	strd	r6, [sp, #8]
	mov	r7, #0
	strd	r8, [sp, #16]
	mov	r9, r2
	str	r10, [sp, #24]
	add	r8, r5, #504
	str	lr, [sp, #28]
.L206:
	ldr	r4, [r5]
	add	r5, r5, #84
	cmp	r4, #0
	add	r6, r4, #108
	mov	r0, r6
	beq	.L205
	bl	_raw_spin_lock_irqsave
	mov	r1, r0
	str	r7, [r4, #92]
	mov	r0, r6
	str	r7, [r4, #96]
	bl	_raw_spin_unlock_irqrestore
.L205:
	cmp	r5, r8
	bne	.L206
	mov	r0, r9
	ldrd	r4, [sp]
	ldrd	r6, [sp, #8]
	ldrd	r8, [sp, #16]
	ldr	r10, [sp, #24]
	add	sp, sp, #28
	ldr	pc, [sp], #4
.L213:
	.align	2
.L212:
	.word	.LANCHOR1+528
	.fnend
	.size	gsmd_ctrl_reset_stats, .-gsmd_ctrl_reset_stats
	.align	2
	.syntax unified
	.arm
	.fpu softvfp
	.type	rmnet_ctrl_open, %function
rmnet_ctrl_open:
	.fnstart
	@ args = 0, pretend = 0, frame = 0
	@ frame_needed = 0, uses_anonymous_args = 0
	strd	r4, [sp, #-16]!
	.save {r4, r5, r6, lr}
	movw	r4, #:lower16:.LANCHOR1
	movt	r4, #:upper16:.LANCHOR1
	str	r6, [sp, #8]
	ldr	r3, [r4, #1032]
	str	lr, [sp, #12]
	add	r2, r3, #16
	.syntax divided
@ 60 "/home/xawlw/kernel/arg/arch/arm/include/asm/atomic.h" 1
	dmb
@ 0 "" 2
@ 62 "/home/xawlw/kernel/arg/arch/arm/include/asm/atomic.h" 1
	@ atomic_add_return
1:	ldrex	r5, [r2]
	add	r5, r5, #1
	strex	r0, r5, [r2]
	teq	r0, #0
	bne	1b
@ 0 "" 2
@ 72 "/home/xawlw/kernel/arg/arch/arm/include/asm/atomic.h" 1
	dmb
@ 0 "" 2
	.arm
	.syntax unified
	cmp	r5, #1
	bne	.L215
	ldr	r0, [r4, #1032]
	str	r0, [r1, #124]
	add	r0, r0, #52
	bl	_raw_spin_lock_irqsave
	ldr	r3, [r4, #1032]
	mov	r1, r0
	strb	r5, [r3, #4]
	add	r0, r3, #52
	bl	_raw_spin_unlock_irqrestore
	mov	r0, #0
.L214:
	ldrd	r4, [sp]
	ldr	r6, [sp, #8]
	add	sp, sp, #12
	ldr	pc, [sp], #4
.L215:
	.syntax divided
@ 82 "/home/xawlw/kernel/arg/arch/arm/include/asm/atomic.h" 1
	@ atomic_sub
1:	ldrex	r1, [r2]
	sub	r1, r1, #1
	strex	r0, r1, [r2]
	teq	r0, #0
	bne	1b
@ 0 "" 2
	.arm
	.syntax unified
	mvn	r0, #15
	b	.L214
	.fnend
	.size	rmnet_ctrl_open, .-rmnet_ctrl_open
	.align	2
	.syntax unified
	.arm
	.fpu softvfp
	.type	rmnet_ctrl_release, %function
rmnet_ctrl_release:
	.fnstart
	@ args = 0, pretend = 0, frame = 0
	@ frame_needed = 0, uses_anonymous_args = 0
	strd	r4, [sp, #-16]!
	.save {r4, r5, r6, lr}
	mov	r5, #0
	str	r6, [sp, #8]
	str	lr, [sp, #12]
	ldr	r4, [r1, #124]
	add	r6, r4, #52
	mov	r0, r6
	bl	_raw_spin_lock_irqsave
	mov	r1, r0
	strb	r5, [r4, #4]
	mov	r0, r6
	bl	_raw_spin_unlock_irqrestore
	add	r3, r4, #16
	.syntax divided
@ 82 "/home/xawlw/kernel/arg/arch/arm/include/asm/atomic.h" 1
	@ atomic_sub
1:	ldrex	r2, [r3]
	sub	r2, r2, #1
	strex	r1, r2, [r3]
	teq	r1, #0
	bne	1b
@ 0 "" 2
	.arm
	.syntax unified
	mov	r0, r5
	ldrd	r4, [sp]
	ldr	r6, [sp, #8]
	add	sp, sp, #12
	ldr	pc, [sp], #4
	.fnend
	.size	rmnet_ctrl_release, .-rmnet_ctrl_release
	.align	2
	.syntax unified
	.arm
	.fpu softvfp
	.type	ghsic_ctrl_receive, %function
ghsic_ctrl_receive:
	.fnstart
	@ args = 0, pretend = 0, frame = 0
	@ frame_needed = 0, uses_anonymous_args = 0
	.save {r4, lr}
	str	r4, [sp, #-8]!
	subs	r4, r0, #0
	str	lr, [sp, #4]
	moveq	r0, r4
	beq	.L220
	ldr	r3, [r4, #52]
	cmp	r3, #0
	beq	.L223
	ldr	r0, [r4, #8]
	blx	r3
	ldr	r3, [r4, #100]
	add	r3, r3, #1
	str	r3, [r4, #100]
.L220:
	ldr	r4, [sp]
	add	sp, sp, #4
	ldr	pc, [sp], #4
.L223:
	mov	r0, r3
	b	.L220
	.fnend
	.size	ghsic_ctrl_receive, .-ghsic_ctrl_receive
	.align	2
	.syntax unified
	.arm
	.fpu softvfp
	.type	ghsic_ctrl_status, %function
ghsic_ctrl_status:
	.fnstart
	@ args = 0, pretend = 0, frame = 0
	@ frame_needed = 0, uses_anonymous_args = 0
	@ link register save eliminated.
	ldr	r3, [r0, #8]
	str	r1, [r0, #92]
	cmp	r3, #0
	beq	.L225
	ldr	r2, [r3, #128]
	cmp	r2, #0
	beq	.L225
	mov	r0, r3
	bx	r2
.L225:
	bx	lr
	.fnend
	.size	ghsic_ctrl_status, .-ghsic_ctrl_status
	.align	2
	.syntax unified
	.arm
	.fpu softvfp
	.type	gctrl_reset_stats, %function
gctrl_reset_stats:
	.fnstart
	@ args = 0, pretend = 0, frame = 0
	@ frame_needed = 0, uses_anonymous_args = 0
	strd	r4, [sp, #-32]!
	.save {r4, r5, r6, r7, r8, r9, r10, lr}
	strd	r6, [sp, #8]
	strd	r8, [sp, #16]
	movw	r9, #:lower16:.LANCHOR1
	movt	r9, #:upper16:.LANCHOR1
	str	r10, [sp, #24]
	mov	r10, r2
	ldr	r3, [r9, #1036]
	str	lr, [sp, #28]
	cmp	r3, #0
	beq	.L234
	mov	r5, #0
	add	r6, r9, #1040
	mov	r8, r5
.L235:
	ldr	r4, [r6]
	cmp	r4, #0
	add	r7, r4, #4
	mov	r0, r7
	beq	.L236
	bl	_raw_spin_lock_irqsave
	mov	r1, r0
	str	r8, [r4, #96]
	mov	r0, r7
	str	r8, [r4, #100]
	add	r5, r5, #1
	add	r6, r6, #104
	str	r8, [r4, #104]
	bl	_raw_spin_unlock_irqrestore
	ldr	r3, [r9, #1036]
	cmp	r3, r5
	bhi	.L235
.L234:
	mov	r0, r10
	ldrd	r4, [sp]
	ldrd	r6, [sp, #8]
	ldrd	r8, [sp, #16]
	ldr	r10, [sp, #24]
	add	sp, sp, #28
	ldr	pc, [sp], #4
.L236:
	add	r5, r5, #1
	add	r6, r6, #104
	cmp	r5, r3
	bcc	.L235
	b	.L234
	.fnend
	.size	gctrl_reset_stats, .-gctrl_reset_stats
	.align	2
	.syntax unified
	.arm
	.fpu softvfp
	.type	ghsic_data_reset_stats, %function
ghsic_data_reset_stats:
	.fnstart
	@ args = 0, pretend = 0, frame = 0
	@ frame_needed = 0, uses_anonymous_args = 0
	strd	r4, [sp, #-36]!
	.save {r4, r5, r6, r7, r8, r9, r10, fp, lr}
	strd	r6, [sp, #8]
	strd	r10, [sp, #24]
	movw	fp, #:lower16:.LANCHOR1
	mov	r10, r2
	strd	r8, [sp, #16]
	movt	fp, #:upper16:.LANCHOR1
	str	lr, [sp, #32]
	.pad #4
	sub	sp, sp, #4
	ldr	r3, [fp, #1456]
	cmp	r3, #0
	beq	.L243
	ldr	r7, .L251
	mov	r6, #0
	mov	r5, r6
.L244:
	ldr	r4, [r7]
	cmp	r4, #0
	add	r8, r4, #80
	add	r9, r4, #48
	mov	r0, r8
	beq	.L245
	bl	_raw_spin_lock_irqsave
	mov	r1, r0
	str	r5, [r4, #188]
	mov	r0, r8
	str	r5, [r4, #204]
	add	r6, r6, #1
	add	r7, r7, #104
	str	r5, [r4, #208]
	str	r5, [r4, #212]
	bl	_raw_spin_unlock_irqrestore
	mov	r0, r9
	bl	_raw_spin_lock_irqsave
	mov	r1, r0
	str	r5, [r4, #192]
	mov	r0, r9
	str	r5, [r4, #196]
	str	r5, [r4, #200]
	str	r5, [r4, #216]
	bl	_raw_spin_unlock_irqrestore
	ldr	r3, [fp, #1456]
	cmp	r3, r6
	bhi	.L244
.L243:
	mov	r0, r10
	add	sp, sp, #4
	@ sp needed
	ldrd	r4, [sp]
	ldrd	r6, [sp, #8]
	ldrd	r8, [sp, #16]
	ldrd	r10, [sp, #24]
	add	sp, sp, #32
	ldr	pc, [sp], #4
.L245:
	add	r6, r6, #1
	add	r7, r7, #104
	cmp	r6, r3
	bcc	.L244
	b	.L243
.L252:
	.align	2
.L251:
	.word	.LANCHOR1+1460
	.fnend
	.size	ghsic_data_reset_stats, .-ghsic_data_reset_stats
	.align	2
	.syntax unified
	.arm
	.fpu softvfp
	.type	ghsuart_ctrl_reset_stats, %function
ghsuart_ctrl_reset_stats:
	.fnstart
	@ args = 0, pretend = 0, frame = 0
	@ frame_needed = 0, uses_anonymous_args = 0
	strd	r4, [sp, #-32]!
	.save {r4, r5, r6, r7, r8, r9, r10, lr}
	strd	r6, [sp, #8]
	movw	r7, #:lower16:.LANCHOR1
	movt	r7, #:upper16:.LANCHOR1
	strd	r8, [sp, #16]
	ldr	r3, [r7, #1876]
	str	r10, [sp, #24]
	mov	r10, r2
	str	lr, [sp, #28]
	cmp	r3, #0
	beq	.L254
	ldr	r6, .L262
	mov	r5, #0
	mov	r9, r5
.L255:
	ldr	r4, [r6]
	cmp	r4, #0
	add	r8, r4, #8
	mov	r0, r8
	beq	.L256
	bl	_raw_spin_lock_irqsave
	mov	r1, r0
	str	r9, [r4, #96]
	mov	r0, r8
	str	r9, [r4, #100]
	add	r5, r5, #1
	add	r6, r6, #84
	str	r9, [r4, #104]
	bl	_raw_spin_unlock_irqrestore
	ldr	r3, [r7, #1876]
	cmp	r3, r5
	bhi	.L255
.L254:
	mov	r0, r10
	ldrd	r4, [sp]
	ldrd	r6, [sp, #8]
	ldrd	r8, [sp, #16]
	ldr	r10, [sp, #24]
	add	sp, sp, #28
	ldr	pc, [sp], #4
.L256:
	add	r5, r5, #1
	add	r6, r6, #84
	cmp	r5, r3
	bcc	.L255
	b	.L254
.L263:
	.align	2
.L262:
	.word	.LANCHOR1+1880
	.fnend
	.size	ghsuart_ctrl_reset_stats, .-ghsuart_ctrl_reset_stats
	.align	2
	.syntax unified
	.arm
	.fpu softvfp
	.type	ghsuart_data_reset_stats, %function
ghsuart_data_reset_stats:
	.fnstart
	@ args = 0, pretend = 0, frame = 0
	@ frame_needed = 0, uses_anonymous_args = 0
	strd	r4, [sp, #-36]!
	.save {r4, r5, r6, r7, r8, r9, r10, fp, lr}
	strd	r6, [sp, #8]
	movw	r7, #:lower16:.LANCHOR1
	movt	r7, #:upper16:.LANCHOR1
	strd	r8, [sp, #16]
	ldr	r3, [r7, #2048]
	strd	r10, [sp, #24]
	mov	r10, r2
	str	lr, [sp, #32]
	.pad #4
	sub	sp, sp, #4
	cmp	r3, #0
	beq	.L265
	ldr	r6, .L273
	mov	r5, #0
	mov	r8, r5
.L266:
	ldr	r4, [r6]
	cmp	r4, #0
	add	fp, r4, #104
	add	r9, r4, #72
	mov	r0, fp
	beq	.L267
	bl	_raw_spin_lock_irqsave
	mov	r1, r0
	str	r8, [r4, #204]
	mov	r0, fp
	str	r8, [r4, #212]
	add	r5, r5, #1
	add	r6, r6, #84
	bl	_raw_spin_unlock_irqrestore
	mov	r0, r9
	bl	_raw_spin_lock_irqsave
	mov	r1, r0
	str	r8, [r4, #208]
	mov	r0, r9
	bl	_raw_spin_unlock_irqrestore
	ldr	r3, [r7, #2048]
	cmp	r3, r5
	bhi	.L266
.L265:
	mov	r0, r10
	add	sp, sp, #4
	@ sp needed
	ldrd	r4, [sp]
	ldrd	r6, [sp, #8]
	ldrd	r8, [sp, #16]
	ldrd	r10, [sp, #24]
	add	sp, sp, #32
	ldr	pc, [sp], #4
.L267:
	add	r5, r5, #1
	add	r6, r6, #84
	cmp	r5, r3
	bcc	.L266
	b	.L265
.L274:
	.align	2
.L273:
	.word	.LANCHOR1+2052
	.fnend
	.size	ghsuart_data_reset_stats, .-ghsuart_data_reset_stats
	.align	2
	.global	gser_get_dtr
	.syntax unified
	.arm
	.fpu softvfp
	.type	gser_get_dtr, %function
gser_get_dtr:
	.fnstart
	@ args = 0, pretend = 0, frame = 0
	@ frame_needed = 0, uses_anonymous_args = 0
	@ link register save eliminated.
	ldrh	r0, [r0, #168]
	and	r0, r0, #1
	bx	lr
	.fnend
	.size	gser_get_dtr, .-gser_get_dtr
	.align	2
	.global	gser_get_rts
	.syntax unified
	.arm
	.fpu softvfp
	.type	gser_get_rts, %function
gser_get_rts:
	.fnstart
	@ args = 0, pretend = 0, frame = 0
	@ frame_needed = 0, uses_anonymous_args = 0
	@ link register save eliminated.
	ldrh	r0, [r0, #168]
	ubfx	r0, r0, #1, #1
	bx	lr
	.fnend
	.size	gser_get_rts, .-gser_get_rts
	.align	2
	.syntax unified
	.arm
	.fpu softvfp
	.type	ccid_bulk_open, %function
ccid_bulk_open:
	.fnstart
	@ args = 0, pretend = 0, frame = 0
	@ frame_needed = 0, uses_anonymous_args = 0
	movw	r3, #:lower16:.LANCHOR1
	strd	r4, [sp, #-24]!
	.save {r4, r5, r6, r7, r8, lr}
	movt	r3, #:upper16:.LANCHOR1
	strd	r6, [sp, #8]
	str	r8, [sp, #16]
	str	lr, [sp, #20]
	ldr	r4, [r3, #2220]
	ldr	r3, [r4, #88]
	cmp	r3, #0
	beq	.L279
	ldr	r5, [r4, #144]
	cmp	r5, #0
	bne	.L280
	mov	r3, #1
	add	r7, r4, #84
	str	r5, [r4, #140]
	mov	r6, r1
	mov	r0, r7
	str	r3, [r4, #144]
	bl	_raw_spin_lock_irqsave
	mov	r1, r0
	str	r4, [r6, #124]
	mov	r0, r7
	bl	_raw_spin_unlock_irqrestore
	mov	r0, r5
.L277:
	ldrd	r4, [sp]
	ldrd	r6, [sp, #8]
	ldr	r8, [sp, #16]
	add	sp, sp, #20
	ldr	pc, [sp], #4
.L280:
	mvn	r0, #15
	b	.L277
.L279:
	mvn	r0, #18
	b	.L277
	.fnend
	.size	ccid_bulk_open, .-ccid_bulk_open
	.align	2
	.syntax unified
	.arm
	.fpu softvfp
	.type	ccid_bulk_release, %function
ccid_bulk_release:
	.fnstart
	@ args = 0, pretend = 0, frame = 0
	@ frame_needed = 0, uses_anonymous_args = 0
	@ link register save eliminated.
	ldr	r2, [r1, #124]
	mov	r3, #0
	mov	r0, r3
	str	r3, [r2, #144]
	bx	lr
	.fnend
	.size	ccid_bulk_release, .-ccid_bulk_release
	.align	2
	.syntax unified
	.arm
	.fpu softvfp
	.type	ccid_ctrl_open, %function
ccid_ctrl_open:
	.fnstart
	@ args = 0, pretend = 0, frame = 0
	@ frame_needed = 0, uses_anonymous_args = 0
	movw	r3, #:lower16:.LANCHOR1
	strd	r4, [sp, #-24]!
	.save {r4, r5, r6, r7, r8, lr}
	movt	r3, #:upper16:.LANCHOR1
	strd	r6, [sp, #8]
	str	r8, [sp, #16]
	str	lr, [sp, #20]
	ldr	r4, [r3, #2220]
	ldr	r3, [r4, #88]
	cmp	r3, #0
	beq	.L285
	ldr	r5, [r4, #108]
	cmp	r5, #0
	bne	.L286
	mov	r3, #1
	add	r7, r4, #84
	mov	r6, r1
	mov	r0, r7
	str	r3, [r4, #108]
	bl	_raw_spin_lock_irqsave
	mov	r1, r0
	str	r4, [r6, #124]
	mov	r0, r7
	bl	_raw_spin_unlock_irqrestore
	mov	r0, r5
.L283:
	ldrd	r4, [sp]
	ldrd	r6, [sp, #8]
	ldr	r8, [sp, #16]
	add	sp, sp, #20
	ldr	pc, [sp], #4
.L286:
	mvn	r0, #15
	b	.L283
.L285:
	mvn	r0, #18
	b	.L283
	.fnend
	.size	ccid_ctrl_open, .-ccid_ctrl_open
	.align	2
	.syntax unified
	.arm
	.fpu softvfp
	.type	ccid_ctrl_release, %function
ccid_ctrl_release:
	.fnstart
	@ args = 0, pretend = 0, frame = 0
	@ frame_needed = 0, uses_anonymous_args = 0
	@ link register save eliminated.
	ldr	r2, [r1, #124]
	mov	r3, #0
	mov	r0, r3
	str	r3, [r2, #108]
	bx	lr
	.fnend
	.size	ccid_ctrl_release, .-ccid_ctrl_release
	.align	2
	.syntax unified
	.arm
	.fpu softvfp
	.type	rndis_response_available, %function
rndis_response_available:
	.fnstart
	@ args = 0, pretend = 0, frame = 0
	@ frame_needed = 0, uses_anonymous_args = 0
	strd	r4, [sp, #-16]!
	.save {r4, r5, r6, lr}
	add	r5, r0, #168
	str	r6, [sp, #8]
	str	lr, [sp, #12]
	ldr	r1, [r0, #164]
	ldr	ip, [r1]
	.syntax divided
@ 60 "/home/xawlw/kernel/arg/arch/arm/include/asm/atomic.h" 1
	dmb
@ 0 "" 2
@ 62 "/home/xawlw/kernel/arg/arch/arm/include/asm/atomic.h" 1
	@ atomic_add_return
1:	ldrex	r3, [r5]
	add	r3, r3, #1
	strex	r2, r3, [r5]
	teq	r2, #0
	bne	1b
@ 0 "" 2
@ 72 "/home/xawlw/kernel/arg/arch/arm/include/asm/atomic.h" 1
	dmb
@ 0 "" 2
	.arm
	.syntax unified
	cmp	r3, #1
	beq	.L300
.L289:
	ldrd	r4, [sp]
	ldr	r6, [sp, #8]
	add	sp, sp, #12
	ldr	pc, [sp], #4
.L300:
	ldr	r2, [r0, #160]
	ldr	r2, [r2]
	cmp	r2, #0
	beq	.L289
	mov	r4, r0
	mov	r0, #0
	str	r3, [ip]
	mov	r2, #32
	str	r0, [ip, #4]
	ldr	r0, [r4, #160]
	ldr	r3, [r0, #8]
	ldr	r3, [r3, #16]
	blx	r3
	cmp	r0, #0
	beq	.L289
	.syntax divided
@ 82 "/home/xawlw/kernel/arg/arch/arm/include/asm/atomic.h" 1
	@ atomic_sub
1:	ldrex	r3, [r5]
	sub	r3, r3, #1
	strex	r2, r3, [r5]
	teq	r2, #0
	bne	1b
@ 0 "" 2
	.arm
	.syntax unified
	b	.L289
	.fnend
	.size	rndis_response_available, .-rndis_response_available
	.align	2
	.syntax unified
	.arm
	.fpu softvfp
	.type	rndis_response_complete, %function
rndis_response_complete:
	.fnstart
	@ args = 0, pretend = 0, frame = 0
	@ frame_needed = 0, uses_anonymous_args = 0
	strd	r4, [sp, #-16]!
	.save {r4, r5, r6, lr}
	ldr	r4, [r1, #32]
	str	r6, [sp, #8]
	str	lr, [sp, #12]
	ldr	r3, [r4, #20]
	cmp	r3, #0
	beq	.L301
	ldr	r3, [r3, #24]
	cmp	r3, #0
	beq	.L301
	ldr	r3, [r1, #44]
	cmn	r3, #108
	beq	.L306
	cmn	r3, #104
	beq	.L306
	ldr	r3, [r4, #160]
	cmp	r3, r0
	beq	.L324
.L301:
	ldrd	r4, [sp]
	ldr	r6, [sp, #8]
	add	sp, sp, #12
	ldr	pc, [sp], #4
.L306:
	mov	r3, #0
	str	r3, [r4, #168]
	b	.L301
.L324:
	add	r5, r4, #168
	.syntax divided
@ 98 "/home/xawlw/kernel/arg/arch/arm/include/asm/atomic.h" 1
	dmb
@ 0 "" 2
@ 100 "/home/xawlw/kernel/arg/arch/arm/include/asm/atomic.h" 1
	@ atomic_sub_return
1:	ldrex	r3, [r5]
	sub	r3, r3, #1
	strex	r2, r3, [r5]
	teq	r2, #0
	bne	1b
@ 0 "" 2
@ 110 "/home/xawlw/kernel/arg/arch/arm/include/asm/atomic.h" 1
	dmb
@ 0 "" 2
	.arm
	.syntax unified
	cmp	r3, #0
	beq	.L301
	ldr	r0, [r4, #160]
	mov	r2, #32
	ldr	r3, [r0, #8]
	ldr	r3, [r3, #16]
	blx	r3
	cmp	r0, #0
	beq	.L301
	.syntax divided
@ 82 "/home/xawlw/kernel/arg/arch/arm/include/asm/atomic.h" 1
	@ atomic_sub
1:	ldrex	r3, [r5]
	sub	r3, r3, #1
	strex	r2, r3, [r5]
	teq	r2, #0
	bne	1b
@ 0 "" 2
	.arm
	.syntax unified
	b	.L301
	.fnend
	.size	rndis_response_complete, .-rndis_response_complete
	.align	2
	.syntax unified
	.arm
	.fpu softvfp
	.type	ecm_qc_get_alt, %function
ecm_qc_get_alt:
	.fnstart
	@ args = 0, pretend = 0, frame = 0
	@ frame_needed = 0, uses_anonymous_args = 0
	@ link register save eliminated.
	ldrb	r3, [r0, #112]	@ zero_extendqisi2
	cmp	r3, r1
	beq	.L327
	ldr	r3, [r0, #80]
	ldr	r0, [r3]
	adds	r0, r0, #0
	movne	r0, #1
	bx	lr
.L327:
	mov	r0, #0
	bx	lr
	.fnend
	.size	ecm_qc_get_alt, .-ecm_qc_get_alt
	.align	2
	.syntax unified
	.arm
	.fpu softvfp
	.type	mbim_get_alt, %function
mbim_get_alt:
	.fnstart
	@ args = 0, pretend = 0, frame = 0
	@ frame_needed = 0, uses_anonymous_args = 0
	@ link register save eliminated.
	ldrb	r3, [r0, #188]	@ zero_extendqisi2
	cmp	r3, r1
	beq	.L330
	ldrb	r3, [r0, #189]	@ zero_extendqisi2
	cmp	r3, r1
	bne	.L331
	ldrb	r0, [r0, #190]	@ zero_extendqisi2
	bx	lr
.L330:
	mov	r0, #0
	bx	lr
.L331:
	mvn	r0, #21
	bx	lr
	.fnend
	.size	mbim_get_alt, .-mbim_get_alt
	.align	2
	.syntax unified
	.arm
	.fpu softvfp
	.type	ecm_get_alt, %function
ecm_get_alt:
	.fnstart
	@ args = 0, pretend = 0, frame = 0
	@ frame_needed = 0, uses_anonymous_args = 0
	@ link register save eliminated.
	ldrb	r3, [r0, #140]	@ zero_extendqisi2
	cmp	r3, r1
	beq	.L334
	ldr	r3, [r0, #80]
	ldr	r0, [r3]
	adds	r0, r0, #0
	movne	r0, #1
	bx	lr
.L334:
	mov	r0, #0
	bx	lr
	.fnend
	.size	ecm_get_alt, .-ecm_get_alt
	.align	2
	.syntax unified
	.arm
	.fpu softvfp
	.type	ueth_change_mtu, %function
ueth_change_mtu:
	.fnstart
	@ args = 0, pretend = 0, frame = 0
	@ frame_needed = 0, uses_anonymous_args = 0
	strd	r4, [sp, #-16]!
	.save {r4, r5, r6, lr}
	add	r5, r0, #1216
	mov	r4, r0
	mov	r0, r5
	str	r6, [sp, #8]
	mov	r6, r1
	str	lr, [sp, #12]
	bl	_raw_spin_lock_irqsave
	ldr	r3, [r4, #1220]
	mov	r1, r0
	cmp	r3, #0
	bne	.L337
	sub	r0, r6, #15
	movw	r2, #1499
	cmp	r0, r2
	bhi	.L338
	str	r6, [r4, #364]
	mov	r4, r3
.L336:
	mov	r0, r5
	bl	_raw_spin_unlock_irqrestore
	ldr	r6, [sp, #8]
	mov	r0, r4
	ldrd	r4, [sp]
	add	sp, sp, #12
	ldr	pc, [sp], #4
.L337:
	mvn	r4, #15
	b	.L336
.L338:
	mvn	r4, #33
	b	.L336
	.fnend
	.size	ueth_change_mtu, .-ueth_change_mtu
	.align	2
	.syntax unified
	.arm
	.fpu softvfp
	.type	prealloc, %function
prealloc:
	.fnstart
	@ args = 0, pretend = 0, frame = 0
	@ frame_needed = 0, uses_anonymous_args = 0
	cmp	r2, #0
	beq	.L363
	strd	r4, [sp, #-24]!
	.save {r4, r5, r6, r7, r8, lr}
	sub	r2, r2, #1
	mov	r4, r0
	strd	r6, [sp, #8]
	mov	r6, r1
	str	r8, [sp, #16]
	str	lr, [sp, #20]
	ldr	r3, [r0]
	cmp	r0, r3
	sub	r3, r3, #36
	bne	.L342
	b	.L366
.L345:
	cmn	r5, #1
	mov	r2, r5
	beq	.L367
.L342:
	ldr	r3, [r3, #36]
	sub	r5, r2, #1
	cmp	r4, r3
	sub	r3, r3, #36
	bne	.L345
	ldr	r3, [r6, #28]
	cmp	r2, #0
	ldrb	r7, [r3, #2]	@ zero_extendqisi2
	lsr	r7, r7, #7
	beq	.L346
.L350:
	movw	r2, #:lower16:tx_complete
	movw	r3, #:lower16:rx_complete
	cmp	r7, #0
	movt	r2, #:upper16:tx_complete
	movt	r3, #:upper16:rx_complete
	movne	r7, r2
	moveq	r7, r3
	b	.L349
.L347:
	str	r7, [r0, #28]
	ldr	r2, [r4]
	cmp	r5, #0
	mov	r5, r1
	str	r3, [r2, #4]
	str	r2, [r0, #36]
	str	r4, [r0, #40]
	str	r3, [r4]
	beq	.L346
.L349:
	ldr	r3, [r6, #8]
	mov	r1, #32
	mov	r0, r6
	ldr	r3, [r3, #8]
	blx	r3
	cmp	r0, #0
	sub	r1, r5, #1
	add	r3, r0, #36
	bne	.L347
	ldr	r3, [r4]
	cmp	r4, r3
	beq	.L341
.L346:
	mov	r0, #0
.L340:
	ldrd	r4, [sp]
	ldrd	r6, [sp, #8]
	ldr	r8, [sp, #16]
	add	sp, sp, #20
	ldr	pc, [sp], #4
.L367:
	mov	r8, #256
	mov	r7, #512
.L344:
	ldr	r5, [r3, #36]
	mov	r1, r3
	mov	r0, r6
	ldr	r2, [r3, #40]
	str	r2, [r5, #4]
	str	r5, [r2]
	str	r8, [r3, #36]
	str	r7, [r3, #40]
	ldr	r3, [r6, #8]
	ldr	r3, [r3, #12]
	blx	r3
	cmp	r4, r5
	sub	r3, r5, #36
	bne	.L344
	b	.L346
.L366:
	ldr	r3, [r1, #28]
	mov	r5, r2
	ldrb	r7, [r3, #2]	@ zero_extendqisi2
	lsr	r7, r7, #7
	b	.L350
.L341:
	mvn	r0, #11
	b	.L340
.L363:
	mvn	r0, #11
	bx	lr
	.fnend
	.size	prealloc, .-prealloc
	.align	2
	.syntax unified
	.arm
	.fpu softvfp
	.type	ueth_qc_change_mtu, %function
ueth_qc_change_mtu:
	.fnstart
	@ args = 0, pretend = 0, frame = 0
	@ frame_needed = 0, uses_anonymous_args = 0
	strd	r4, [sp, #-16]!
	.save {r4, r5, r6, lr}
	add	r5, r0, #1216
	mov	r4, r0
	mov	r0, r5
	str	r6, [sp, #8]
	mov	r6, r1
	str	lr, [sp, #12]
	bl	_raw_spin_lock_irqsave
	ldr	r3, [r4, #1220]
	mov	r1, r0
	cmp	r3, #0
	bne	.L370
	sub	r0, r6, #15
	movw	r2, #1499
	cmp	r0, r2
	bhi	.L371
	str	r6, [r4, #364]
	mov	r4, r3
.L369:
	mov	r0, r5
	bl	_raw_spin_unlock_irqrestore
	ldr	r6, [sp, #8]
	mov	r0, r4
	ldrd	r4, [sp]
	add	sp, sp, #12
	ldr	pc, [sp], #4
.L370:
	mvn	r4, #15
	b	.L369
.L371:
	mvn	r4, #33
	b	.L369
	.fnend
	.size	ueth_qc_change_mtu, .-ueth_qc_change_mtu
	.align	2
	.syntax unified
	.arm
	.fpu softvfp
	.type	eth_qc_start_xmit, %function
eth_qc_start_xmit:
	.fnstart
	@ args = 0, pretend = 0, frame = 0
	@ frame_needed = 0, uses_anonymous_args = 0
	@ link register save eliminated.
	mov	r0, #0
	bx	lr
	.fnend
	.size	eth_qc_start_xmit, .-eth_qc_start_xmit
	.align	2
	.syntax unified
	.arm
	.fpu softvfp
	.type	f_audio_get_alt, %function
f_audio_get_alt:
	.fnstart
	@ args = 0, pretend = 0, frame = 0
	@ frame_needed = 0, uses_anonymous_args = 0
	@ link register save eliminated.
	movw	r3, #:lower16:.LANCHOR0
	movt	r3, #:upper16:.LANCHOR0
	ldrb	r2, [r3, #16]	@ zero_extendqisi2
	cmp	r2, r1
	beq	.L378
	ldrb	r3, [r3, #17]	@ zero_extendqisi2
	cmp	r3, r1
	ldrbeq	r0, [r0, #241]	@ zero_extendqisi2
	movne	r0, #0
	bx	lr
.L378:
	ldrb	r0, [r0, #240]	@ zero_extendqisi2
	bx	lr
	.fnend
	.size	f_audio_get_alt, .-f_audio_get_alt
	.align	2
	.syntax unified
	.arm
	.fpu softvfp
	.type	f_audio_disable, %function
f_audio_disable:
	.fnstart
	@ args = 0, pretend = 0, frame = 0
	@ frame_needed = 0, uses_anonymous_args = 0
	@ link register save eliminated.
	movw	r3, #:lower16:.LANCHOR1
	mov	r2, #0
	movt	r3, #:upper16:.LANCHOR1
	strb	r2, [r3, #2224]
	bx	lr
	.fnend
	.size	f_audio_disable, .-f_audio_disable
	.align	2
	.syntax unified
	.arm
	.fpu softvfp
	.type	generic_set_cmd, %function
generic_set_cmd:
	.fnstart
	@ args = 0, pretend = 0, frame = 0
	@ frame_needed = 0, uses_anonymous_args = 0
	@ link register save eliminated.
	add	r1, r1, #4
	str	r2, [r0, r1, lsl #2]
	mov	r0, #0
	bx	lr
	.fnend
	.size	generic_set_cmd, .-generic_set_cmd
	.align	2
	.syntax unified
	.arm
	.fpu softvfp
	.type	generic_get_cmd, %function
generic_get_cmd:
	.fnstart
	@ args = 0, pretend = 0, frame = 0
	@ frame_needed = 0, uses_anonymous_args = 0
	@ link register save eliminated.
	add	r1, r1, #4
	ldr	r0, [r0, r1, lsl #2]
	bx	lr
	.fnend
	.size	generic_get_cmd, .-generic_get_cmd
	.align	2
	.syntax unified
	.arm
	.fpu softvfp
	.type	ncm_ep0out_complete, %function
ncm_ep0out_complete:
	.fnstart
	@ args = 0, pretend = 0, frame = 0
	@ frame_needed = 0, uses_anonymous_args = 0
	@ link register save eliminated.
	mov	r2, #0
	ldr	ip, [r1, #32]
	ldr	r3, [r1, #44]
	str	r2, [r1, #32]
	cmp	r3, r2
	beq	.L386
.L383:
	ldr	r3, [r0, #8]
	mov	r1, #1
	ldr	r3, [r3, #24]
	bx	r3
.L386:
	ldr	r3, [r1, #4]
	ldr	r2, [r1, #48]
	cmp	r2, r3
	bne	.L383
	ldr	r3, [r1]
	ldr	r3, [r3]	@ unaligned
	cmp	r3, #2048
	bcc	.L383
	movw	r2, #:lower16:.LANCHOR0
	movt	r2, #:upper16:.LANCHOR0
	ldr	r2, [r2, #24]
	cmp	r2, r3
	bcc	.L383
	str	r3, [ip, #104]
	bx	lr
	.fnend
	.size	ncm_ep0out_complete, .-ncm_ep0out_complete
	.align	2
	.syntax unified
	.arm
	.fpu softvfp
	.type	ncm_get_alt, %function
ncm_get_alt:
	.fnstart
	@ args = 0, pretend = 0, frame = 0
	@ frame_needed = 0, uses_anonymous_args = 0
	@ link register save eliminated.
	ldrb	r3, [r0, #140]	@ zero_extendqisi2
	cmp	r3, r1
	beq	.L389
	ldr	r3, [r0, #80]
	ldr	r0, [r3]
	adds	r0, r0, #0
	movne	r0, #1
	bx	lr
.L389:
	mov	r0, #0
	bx	lr
	.fnend
	.size	ncm_get_alt, .-ncm_get_alt
	.align	2
	.syntax unified
	.arm
	.fpu softvfp
	.type	audio_source_function_unbind_config, %function
audio_source_function_unbind_config:
	.fnstart
	@ args = 0, pretend = 0, frame = 0
	@ frame_needed = 0, uses_anonymous_args = 0
	@ link register save eliminated.
	ldr	r3, [r0, #4]
	mvn	r2, #0
	str	r2, [r3]
	str	r2, [r3, #4]
	bx	lr
	.fnend
	.size	audio_source_function_unbind_config, .-audio_source_function_unbind_config
	.align	2
	.syntax unified
	.arm
	.fpu softvfp
	.type	uasp_function_bind_config, %function
uasp_function_bind_config:
	.fnstart
	@ args = 0, pretend = 0, frame = 0
	@ frame_needed = 0, uses_anonymous_args = 0
	@ link register save eliminated.
	mvn	r0, #18
	bx	lr
	.fnend
	.size	uasp_function_bind_config, .-uasp_function_bind_config
	.align	2
	.syntax unified
	.arm
	.fpu softvfp
	.type	android_unbind_config, %function
android_unbind_config:
	.fnstart
	@ args = 0, pretend = 0, frame = 0
	@ frame_needed = 0, uses_anonymous_args = 0
	movw	r3, #:lower16:.LANCHOR1
	strd	r4, [sp, #-16]!
	.save {r4, r5, r6, lr}
	ldr	ip, .L406
	movt	r3, #:upper16:.LANCHOR1
	str	r6, [sp, #8]
	mov	r5, r0
	str	lr, [sp, #12]
	ldr	r3, [r3, #2228]
	ldr	r1, [r0, #24]
	cmp	r3, ip
	beq	.L393
	sub	r2, r3, #208
	ldr	r3, [r3, #-200]
	cmp	r1, r3
	bne	.L394
	b	.L393
.L395:
	ldr	r3, [r3, #-200]
	cmp	r1, r3
	beq	.L393
.L394:
	ldr	r3, [r2, #208]
	cmp	r3, ip
	sub	r2, r3, #208
	bne	.L395
.L393:
	ldr	r3, [r1]
	mov	r6, r5
	ldrb	r2, [r3, #386]	@ zero_extendqisi2
	cmp	r2, #0
	movne	r2, #0
	strbne	r2, [r3, #386]
	ldr	r4, [r6, #112]!
	cmp	r6, r4
	sub	r4, r4, #4
	beq	.L392
.L397:
	ldr	r3, [r4]
	mov	r1, r5
	mov	r0, r3
	ldr	r3, [r3, #44]
	cmp	r3, #0
	beq	.L399
	blx	r3
	ldr	r4, [r4, #4]
	cmp	r6, r4
	sub	r4, r4, #4
	bne	.L397
.L392:
	ldrd	r4, [sp]
	ldr	r6, [sp, #8]
	add	sp, sp, #12
	ldr	pc, [sp], #4
.L399:
	ldr	r4, [r4, #4]
	cmp	r6, r4
	sub	r4, r4, #4
	bne	.L397
	b	.L392
.L407:
	.align	2
.L406:
	.word	.LANCHOR1+2228
	.fnend
	.size	android_unbind_config, .-android_unbind_config
	.align	2
	.syntax unified
	.arm
	.fpu softvfp
	.type	audio_set_endpoint_complete, %function
audio_set_endpoint_complete:
	.fnstart
	@ args = 0, pretend = 0, frame = 8
	@ frame_needed = 0, uses_anonymous_args = 0
	strd	r4, [sp, #-16]!
	.save {r4, r5, r6, lr}
	mov	r3, #0
	str	r6, [sp, #8]
	str	lr, [sp, #12]
	.pad #8
	sub	sp, sp, #8
	ldr	r5, [r1, #32]
	ldr	r4, [r1, #44]
	str	r3, [sp, #4]
	cmp	r4, r3
	bne	.L408
	ldr	r6, [r5, #264]
	cmp	r6, r3
	beq	.L408
	ldm	r1, {r1, r2}
	add	r0, sp, #4
	bl	memcpy
	ldr	r2, [sp, #4]
	mov	r0, r6
	ldrb	r1, [r5, #260]	@ zero_extendqisi2
	ldr	r3, [r6, #36]
	blx	r3
	str	r4, [r5, #264]
.L408:
	add	sp, sp, #8
	@ sp needed
	ldrd	r4, [sp]
	ldr	r6, [sp, #8]
	add	sp, sp, #12
	ldr	pc, [sp], #4
	.fnend
	.size	audio_set_endpoint_complete, .-audio_set_endpoint_complete
	.align	2
	.syntax unified
	.arm
	.fpu softvfp
	.type	ncm_function_init, %function
ncm_function_init:
	.fnstart
	@ args = 0, pretend = 0, frame = 0
	@ frame_needed = 0, uses_anonymous_args = 0
	movw	r3, #:lower16:kmalloc_caches
	movt	r3, #:upper16:kmalloc_caches
	ldr	r3, [r3, #24]
	cmp	r3, #0
	beq	.L421
	.save {r4, lr}
	str	r4, [sp, #-8]!
	mov	r2, #6
	mov	r4, r0
	movw	r1, #32976
	mov	r0, r3
	str	lr, [sp, #4]
	bl	kmem_cache_alloc_trace
	cmp	r0, #0
	str	r0, [r4, #4]
	mvneq	r3, #11
	movne	r3, #0
	ldr	r4, [sp]
	add	sp, sp, #4
	mov	r0, r3
	ldr	pc, [sp], #4
.L421:
	mov	r2, #16
	str	r2, [r0, #4]
	mov	r0, r3
	bx	lr
	.fnend
	.size	ncm_function_init, .-ncm_function_init
	.align	2
	.syntax unified
	.arm
	.fpu softvfp
	.type	rndis_function_init, %function
rndis_function_init:
	.fnstart
	@ args = 0, pretend = 0, frame = 0
	@ frame_needed = 0, uses_anonymous_args = 0
	movw	r3, #:lower16:kmalloc_caches
	movt	r3, #:upper16:kmalloc_caches
	ldr	r3, [r3, #36]
	cmp	r3, #0
	beq	.L429
	.save {r4, lr}
	str	r4, [sp, #-8]!
	mov	r2, #272
	mov	r4, r0
	movw	r1, #32976
	mov	r0, r3
	str	lr, [sp, #4]
	bl	kmem_cache_alloc_trace
	cmp	r0, #0
	str	r0, [r4, #4]
	mvneq	r3, #11
	movne	r3, #0
	ldr	r4, [sp]
	add	sp, sp, #4
	mov	r0, r3
	ldr	pc, [sp], #4
.L429:
	mov	r2, #16
	str	r2, [r0, #4]
	mov	r0, r3
	bx	lr
	.fnend
	.size	rndis_function_init, .-rndis_function_init
	.align	2
	.syntax unified
	.arm
	.fpu softvfp
	.type	audio_source_function_init, %function
audio_source_function_init:
	.fnstart
	@ args = 0, pretend = 0, frame = 0
	@ frame_needed = 0, uses_anonymous_args = 0
	movw	r3, #:lower16:kmalloc_caches
	.save {r4, lr}
	str	r4, [sp, #-8]!
	mov	r4, r0
	movt	r3, #:upper16:kmalloc_caches
	str	lr, [sp, #4]
	ldr	r0, [r3, #24]
	cmp	r0, #0
	beq	.L433
	mov	r2, #8
	movw	r1, #32976
	bl	kmem_cache_alloc_trace
	subs	r3, r0, #0
	beq	.L436
.L431:
	mvn	r2, #0
	mov	r0, #0
	str	r2, [r3]
	str	r2, [r3, #4]
	str	r3, [r4, #4]
.L430:
	ldr	r4, [sp]
	add	sp, sp, #4
	ldr	pc, [sp], #4
.L433:
	mov	r3, #16
	b	.L431
.L436:
	mvn	r0, #11
	b	.L430
	.fnend
	.size	audio_source_function_init, .-audio_source_function_init
	.align	2
	.syntax unified
	.arm
	.fpu softvfp
	.type	midi_function_init, %function
midi_function_init:
	.fnstart
	@ args = 0, pretend = 0, frame = 0
	@ frame_needed = 0, uses_anonymous_args = 0
	movw	r3, #:lower16:kmalloc_caches
	.save {r4, lr}
	str	r4, [sp, #-8]!
	movt	r3, #:upper16:kmalloc_caches
	str	lr, [sp, #4]
	ldr	r3, [r3, #24]
	cmp	r3, #0
	beq	.L443
	mov	r4, r0
	mov	r2, #8
	mov	r0, r3
	movw	r1, #32976
	bl	kmem_cache_alloc_trace
	cmp	r0, #0
	mov	r3, r0
	str	r0, [r4, #4]
	beq	.L441
.L439:
	mvn	r2, #0
	mov	r0, #0
	str	r2, [r3]
	str	r2, [r3, #4]
.L437:
	ldr	r4, [sp]
	add	sp, sp, #4
	ldr	pc, [sp], #4
.L443:
	mov	r2, #16
	mov	r3, r2
	str	r2, [r0, #4]
	b	.L439
.L441:
	mvn	r0, #11
	b	.L437
	.fnend
	.size	midi_function_init, .-midi_function_init
	.align	2
	.syntax unified
	.arm
	.fpu softvfp
	.type	midi_alloc_ep_req, %function
midi_alloc_ep_req:
	.fnstart
	@ args = 0, pretend = 0, frame = 0
	@ frame_needed = 0, uses_anonymous_args = 0
	strd	r4, [sp, #-16]!
	.save {r4, r5, r6, lr}
	mov	r5, r1
	mov	r1, #32
	str	r6, [sp, #8]
	mov	r6, r0
	str	lr, [sp, #12]
	ldr	r3, [r0, #8]
	ldr	r3, [r3, #8]
	blx	r3
	subs	r4, r0, #0
	beq	.L444
	mov	r0, r5
	mov	r1, #32
	str	r5, [r4, #4]
	bl	__kmalloc
	cmp	r0, #0
	mov	r3, r0
	str	r0, [r4]
	beq	.L450
.L444:
	mov	r0, r4
	ldrd	r4, [sp]
	ldr	r6, [sp, #8]
	add	sp, sp, #12
	ldr	pc, [sp], #4
.L450:
	ldr	r2, [r6, #8]
	mov	r1, r4
	mov	r0, r6
	mov	r4, r3
	ldr	r3, [r2, #12]
	blx	r3
	b	.L444
	.fnend
	.size	midi_alloc_ep_req, .-midi_alloc_ep_req
	.align	2
	.syntax unified
	.arm
	.fpu softvfp
	.type	ccid_function_unbind, %function
ccid_function_unbind:
	.fnstart
	@ args = 0, pretend = 0, frame = 0
	@ frame_needed = 0, uses_anonymous_args = 0
	.save {r4, lr}
	str	r4, [sp, #-8]!
	mov	r4, r1
	str	lr, [sp, #4]
	ldr	r3, [r0, #24]
	ldr	r3, [r3]
	ldr	r3, [r3, #20]
	cmp	r3, #2
	bls	.L452
	ldr	r0, [r1, #12]
	bl	kfree
.L452:
	ldr	r0, [r4, #8]
	ldr	r4, [sp]
	ldr	lr, [sp, #4]
	add	sp, sp, #8
	b	kfree
	.fnend
	.size	ccid_function_unbind, .-ccid_function_unbind
	.align	2
	.syntax unified
	.arm
	.fpu softvfp
	.type	rmnet_smd_free_buf, %function
rmnet_smd_free_buf:
	.fnstart
	@ args = 0, pretend = 0, frame = 0
	@ frame_needed = 0, uses_anonymous_args = 0
	mov	r3, #0
	strd	r4, [sp, #-32]!
	.save {r4, r5, r6, r7, r8, r9, r10, lr}
	mov	r4, r0
	strd	r6, [sp, #8]
	mov	r7, r0
	strd	r8, [sp, #16]
	str	r10, [sp, #24]
	str	lr, [sp, #28]
	str	r3, [r0, #416]
	str	r3, [r0, #420]
	str	r3, [r0, #424]
	str	r3, [r0, #428]
	str	r3, [r0, #432]
	str	r3, [r0, #436]
	str	r3, [r0, #440]
	str	r3, [r0, #444]
	ldr	r3, [r7, #132]!
	cmp	r3, r7
	ldr	r2, [r3]
	beq	.L455
	mov	r6, r2
	mov	r9, #256
	mov	r8, #512
	b	.L456
.L463:
	mov	r6, r2
.L456:
	ldr	r1, [r3, #4]
	mov	r5, r3
	str	r1, [r2, #4]
	str	r2, [r1]
	str	r9, [r3]
	str	r8, [r3, #4]
	ldr	r10, [r4, #80]
	ldr	r0, [r5, #-36]!
	bl	kfree
	ldr	r3, [r10, #8]
	mov	r0, r10
	mov	r1, r5
	ldr	r3, [r3, #12]
	blx	r3
	cmp	r7, r6
	mov	r3, r6
	ldr	r2, [r6]
	bne	.L463
.L455:
	mov	r7, r4
	ldr	r3, [r7, #140]!
	cmp	r3, r7
	ldr	r2, [r3]
	beq	.L457
	mov	r6, r2
	mov	r9, #256
	mov	r8, #512
	b	.L458
.L464:
	mov	r6, r2
.L458:
	ldr	r1, [r3, #4]
	mov	r5, r3
	str	r1, [r2, #4]
	str	r2, [r1]
	str	r9, [r3]
	str	r8, [r3, #4]
	ldr	r10, [r4, #84]
	ldr	r0, [r5, #-36]!
	bl	kfree
	ldr	r3, [r10, #8]
	mov	r0, r10
	mov	r1, r5
	ldr	r3, [r3, #12]
	blx	r3
	cmp	r7, r6
	mov	r3, r6
	ldr	r2, [r6]
	bne	.L464
.L457:
	mov	r7, r4
	ldr	r3, [r7, #100]!
	cmp	r3, r7
	ldr	r2, [r3]
	beq	.L459
	mov	r6, r2
	mov	r9, #256
	mov	r8, #512
	b	.L460
.L465:
	mov	r6, r2
.L460:
	ldr	r1, [r3, #4]
	mov	r5, r3
	str	r1, [r2, #4]
	str	r2, [r1]
	str	r9, [r3]
	str	r8, [r3, #4]
	ldr	r0, [r5, #-8]!
	bl	kfree
	mov	r0, r5
	bl	kfree
	cmp	r7, r6
	mov	r3, r6
	ldr	r2, [r6]
	bne	.L465
.L459:
	mov	r7, r4
	ldr	r3, [r7, #108]!
	cmp	r3, r7
	ldr	r2, [r3]
	beq	.L461
	mov	r6, r2
	mov	r9, #256
	mov	r8, #512
	b	.L462
.L466:
	mov	r6, r2
.L462:
	ldr	r1, [r3, #4]
	mov	r5, r3
	str	r1, [r2, #4]
	str	r2, [r1]
	str	r9, [r3]
	str	r8, [r3, #4]
	ldr	r0, [r5, #-8]!
	bl	kfree
	mov	r0, r5
	bl	kfree
	cmp	r7, r6
	mov	r3, r6
	ldr	r2, [r6]
	bne	.L466
.L461:
	ldrd	r4, [r4, #88]
	ldr	r0, [r5]
	bl	kfree
	ldr	r3, [r4, #8]
	mov	r1, r5
	mov	r0, r4
	ldrd	r4, [sp]
	ldrd	r6, [sp, #8]
	ldrd	r8, [sp, #16]
	ldr	r10, [sp, #24]
	ldr	lr, [sp, #28]
	add	sp, sp, #32
	ldr	r3, [r3, #12]
	bx	r3	@ indirect register sibling call
	.fnend
	.size	rmnet_smd_free_buf, .-rmnet_smd_free_buf
	.align	2
	.syntax unified
	.arm
	.fpu softvfp
	.type	ghsuart_ctrl_receive, %function
ghsuart_ctrl_receive:
	.fnstart
	@ args = 0, pretend = 0, frame = 0
	@ frame_needed = 0, uses_anonymous_args = 0
	strd	r4, [sp, #-16]!
	.save {r4, r5, r6, lr}
	subs	r5, r0, #0
	str	r6, [sp, #8]
	moveq	r4, r5
	mov	r6, r1
	str	lr, [sp, #12]
	beq	.L469
	ldr	r3, [r5, #68]
	cmp	r3, #0
	beq	.L471
	ldr	r0, [r5, #12]
	blx	r3
	ldr	r3, [r5, #100]
	mov	r4, r0
	add	r3, r3, #1
	str	r3, [r5, #100]
.L469:
	mov	r0, r6
	bl	kfree
	ldr	r6, [sp, #8]
	mov	r0, r4
	ldrd	r4, [sp]
	add	sp, sp, #12
	ldr	pc, [sp], #4
.L471:
	mov	r4, r3
	b	.L469
	.fnend
	.size	ghsuart_ctrl_receive, .-ghsuart_ctrl_receive
	.align	2
	.syntax unified
	.arm
	.fpu softvfp
	.type	audio_source_function_cleanup, %function
audio_source_function_cleanup:
	.fnstart
	@ args = 0, pretend = 0, frame = 0
	@ frame_needed = 0, uses_anonymous_args = 0
	@ link register save eliminated.
	ldr	r0, [r0, #4]
	b	kfree
	.fnend
	.size	audio_source_function_cleanup, .-audio_source_function_cleanup
	.align	2
	.syntax unified
	.arm
	.fpu softvfp
	.type	ncm_function_cleanup, %function
ncm_function_cleanup:
	.fnstart
	@ args = 0, pretend = 0, frame = 0
	@ frame_needed = 0, uses_anonymous_args = 0
	.save {r4, lr}
	str	r4, [sp, #-8]!
	mov	r4, r0
	str	lr, [sp, #4]
	ldr	r0, [r0, #4]
	bl	kfree
	mov	r3, #0
	str	r3, [r4, #4]
	ldr	r4, [sp]
	add	sp, sp, #4
	ldr	pc, [sp], #4
	.fnend
	.size	ncm_function_cleanup, .-ncm_function_cleanup
	.align	2
	.syntax unified
	.arm
	.fpu softvfp
	.type	gps_function_cleanup, %function
gps_function_cleanup:
	.fnstart
	@ args = 0, pretend = 0, frame = 0
	@ frame_needed = 0, uses_anonymous_args = 0
	@ link register save eliminated.
	movw	r3, #:lower16:.LANCHOR1
	movt	r3, #:upper16:.LANCHOR1
	ldr	r0, [r3, #2240]
	b	kfree
	.fnend
	.size	gps_function_cleanup, .-gps_function_cleanup
	.align	2
	.syntax unified
	.arm
	.fpu softvfp
	.type	frmnet_unbind, %function
frmnet_unbind:
	.fnstart
	@ args = 0, pretend = 0, frame = 0
	@ frame_needed = 0, uses_anonymous_args = 0
	strd	r4, [sp, #-16]!
	.save {r4, r5, r6, lr}
	mov	r4, r1
	str	r6, [sp, #8]
	str	lr, [sp, #12]
	ldr	r3, [r0, #24]
	ldr	r3, [r3]
	ldr	r3, [r3, #20]
	cmp	r3, #4
	bhi	.L481
.L478:
	cmp	r3, #2
	bls	.L479
	ldr	r0, [r4, #12]
	bl	kfree
.L479:
	ldr	r0, [r4, #8]
	bl	kfree
	ldr	r5, [r4, #128]
	ldr	r6, [r4, #132]
	ldr	r0, [r6]
	bl	kfree
	ldr	r3, [r5, #8]
	mov	r0, r5
	mov	r1, r6
	ldr	r3, [r3, #12]
	blx	r3
	ldr	r6, [sp, #8]
	ldr	r0, [r4]
	ldrd	r4, [sp]
	ldr	lr, [sp, #12]
	add	sp, sp, #16
	b	kfree
.L481:
	mov	r5, r0
	ldr	r0, [r1, #16]
	bl	kfree
	ldr	r3, [r5, #24]
	ldr	r3, [r3]
	ldr	r3, [r3, #20]
	b	.L478
	.fnend
	.size	frmnet_unbind, .-frmnet_unbind
	.align	2
	.syntax unified
	.arm
	.fpu softvfp
	.type	gps_unbind, %function
gps_unbind:
	.fnstart
	@ args = 0, pretend = 0, frame = 0
	@ frame_needed = 0, uses_anonymous_args = 0
	strd	r4, [sp, #-16]!
	.save {r4, r5, r6, lr}
	mov	r4, r1
	str	r6, [sp, #8]
	str	lr, [sp, #12]
	ldr	r3, [r0, #24]
	ldr	r3, [r3]
	ldr	r3, [r3, #20]
	cmp	r3, #4
	bhi	.L486
.L483:
	cmp	r3, #2
	bls	.L484
	ldr	r0, [r4, #12]
	bl	kfree
.L484:
	ldr	r0, [r4, #8]
	bl	kfree
	ldr	r5, [r4, #128]
	ldr	r6, [r4, #132]
	ldr	r0, [r6]
	bl	kfree
	ldr	r3, [r5, #8]
	mov	r0, r5
	mov	r1, r6
	ldr	r3, [r3, #12]
	blx	r3
	ldr	r6, [sp, #8]
	ldr	r0, [r4]
	ldrd	r4, [sp]
	ldr	lr, [sp, #12]
	add	sp, sp, #16
	b	kfree
.L486:
	mov	r5, r0
	ldr	r0, [r1, #16]
	bl	kfree
	ldr	r3, [r5, #24]
	ldr	r3, [r3]
	ldr	r3, [r3, #20]
	b	.L483
	.fnend
	.size	gps_unbind, .-gps_unbind
	.align	2
	.syntax unified
	.arm
	.fpu softvfp
	.type	gs_start_rx, %function
gs_start_rx:
	.fnstart
	@ args = 0, pretend = 0, frame = 0
	@ frame_needed = 0, uses_anonymous_args = 0
	strd	r4, [sp, #-36]!
	.save {r4, r5, r6, r7, r8, r9, r10, fp, lr}
	strd	r6, [sp, #8]
	strd	r8, [sp, #16]
	add	r8, r0, #32
	strd	r10, [sp, #24]
	str	lr, [sp, #32]
	ldr	r1, [r0, #4]
	.pad #4
	sub	sp, sp, #4
	ldr	r9, [r0, #32]
	ldr	r2, [r0, #40]
	ldr	r5, [r1, #84]
	cmp	r8, r9
	beq	.L488
	ldr	r1, [r0, #8]
	cmp	r1, #0
	beq	.L488
	cmp	r2, #7
	bgt	.L488
	mov	r4, r0
	mov	fp, #256
	mov	r10, #512
	b	.L489
.L490:
	cmp	r7, #0
	ldr	r1, [r4, #32]
	bne	.L500
	ldr	r2, [r4, #40]
	cmp	r8, r1
	mov	r9, r1
	add	r2, r2, #1
	str	r2, [r4, #40]
	beq	.L488
	ldr	r1, [r4, #8]
	cmp	r1, #0
	beq	.L488
	cmp	r2, #7
	bgt	.L488
.L489:
	ldm	r9, {r1, r2}
	mov	r3, #4096
	mov	r0, r4
	sub	r6, r9, #36
	str	r2, [r1, #4]
	str	r1, [r2]
	str	r3, [r9, #-32]
	str	fp, [r9]
	str	r10, [r9, #4]
	bl	_raw_spin_unlock
	ldr	ip, [r5, #8]
	mov	r2, #32
	mov	r1, r6
	mov	r0, r5
	ldr	r7, [ip, #16]
	blx	r7
	mov	r7, r0
	mov	r0, r4
	bl	_raw_spin_lock
	ldr	r2, [r4, #4]
	cmp	r2, #0
	bne	.L490
	ldr	r0, [r9, #-36]
	bl	kfree
	ldr	r3, [r5, #8]
	mov	r1, r6
	mov	r0, r5
	ldr	r3, [r3, #12]
	blx	r3
	ldr	r2, [r4, #40]
.L488:
	mov	r0, r2
	add	sp, sp, #4
	@ sp needed
	ldrd	r4, [sp]
	ldrd	r6, [sp, #8]
	ldrd	r8, [sp, #16]
	ldrd	r10, [sp, #24]
	add	sp, sp, #32
	ldr	pc, [sp], #4
.L500:
	str	r9, [r1, #4]
	stm	r9, {r1, r8}
	ldr	r2, [r4, #40]
	str	r9, [r4, #32]
	b	.L488
	.fnend
	.size	gs_start_rx, .-gs_start_rx
	.align	2
	.syntax unified
	.arm
	.fpu softvfp
	.type	rmnet_smd_start_rx, %function
rmnet_smd_start_rx:
	.fnstart
	@ args = 0, pretend = 0, frame = 8
	@ frame_needed = 0, uses_anonymous_args = 0
	strd	r4, [sp, #-36]!
	.save {r4, r5, r6, r7, r8, r9, r10, fp, lr}
	mov	r5, r0
	strd	r6, [sp, #8]
	add	r6, r0, #156
	add	r7, r0, #140
	strd	r8, [sp, #16]
	mov	r9, #256
	mov	r8, #512
	strd	r10, [sp, #24]
	str	lr, [sp, #32]
	ldr	r3, [r0, #76]
	.pad #12
	sub	sp, sp, #12
	mov	r0, r6
	str	r3, [sp, #4]
	bl	_raw_spin_lock_irqsave
	mov	fp, r0
	b	.L502
.L504:
	ldrd	r2, [r4]
	str	r3, [r2, #4]
	str	r2, [r3]
	str	r9, [r4]
	str	r8, [r4, #4]
	bl	_raw_spin_unlock_irqrestore
	ldr	r0, [r5, #80]
	mov	r2, #32
	sub	r1, r4, #36
	ldr	r3, [r0, #8]
	ldr	r3, [r3, #16]
	blx	r3
	mov	r10, r0
	mov	r0, r6
	bl	_raw_spin_lock_irqsave
	cmp	r10, #0
	mov	fp, r0
	bne	.L508
.L502:
	ldr	r4, [r5, #140]
	mov	r1, fp
	mov	r0, r6
	cmp	r7, r4
	bne	.L504
.L503:
	mov	r1, fp
	mov	r0, r6
	add	sp, sp, #12
	@ sp needed
	ldrd	r4, [sp]
	ldrd	r6, [sp, #8]
	ldrd	r8, [sp, #16]
	ldrd	r10, [sp, #24]
	ldr	lr, [sp, #32]
	add	sp, sp, #36
	b	_raw_spin_unlock_irqrestore
.L508:
	ldr	r3, [sp, #4]
	movw	r1, #:lower16:.LC0
	mov	r2, r10
	movt	r1, #:upper16:.LC0
	ldr	r0, [r3]
	add	r0, r0, #32
	bl	dev_err
	ldr	r3, [r5, #144]
	str	r4, [r5, #144]
	str	r7, [r4]
	str	r3, [r4, #4]
	str	r4, [r3]
	b	.L503
	.fnend
	.size	rmnet_smd_start_rx, .-rmnet_smd_start_rx
	.align	2
	.syntax unified
	.arm
	.fpu softvfp
	.type	rmnet_smd_notify_complete, %function
rmnet_smd_notify_complete:
	.fnstart
	@ args = 0, pretend = 0, frame = 0
	@ frame_needed = 0, uses_anonymous_args = 0
	strd	r4, [sp, #-24]!
	.save {r4, r5, r6, r7, r8, lr}
	strd	r6, [sp, #8]
	str	r8, [sp, #16]
	str	lr, [sp, #20]
	ldr	r5, [r1, #32]
	ldr	r2, [r1, #44]
	ldr	r7, [r5, #76]
	cmn	r2, #104
	beq	.L511
	cmp	r2, #0
	mov	r6, r0
	mov	r4, r1
	beq	.L512
	cmn	r2, #108
	beq	.L511
	ldr	r0, [r7]
	movw	r1, #:lower16:.LC1
	movt	r1, #:upper16:.LC1
	add	r0, r0, #32
	bl	dev_err
.L512:
	ldr	r3, [r5, #88]
	cmp	r3, r6
	beq	.L533
.L509:
	ldrd	r4, [sp]
	ldrd	r6, [sp, #8]
	ldr	r8, [sp, #16]
	add	sp, sp, #20
	ldr	pc, [sp], #4
.L533:
	add	r6, r5, #164
	.syntax divided
@ 98 "/home/xawlw/kernel/arg/arch/arm/include/asm/atomic.h" 1
	dmb
@ 0 "" 2
@ 100 "/home/xawlw/kernel/arg/arch/arm/include/asm/atomic.h" 1
	@ atomic_sub_return
1:	ldrex	r3, [r6]
	sub	r3, r3, #1
	strex	r2, r3, [r6]
	teq	r2, #0
	bne	1b
@ 0 "" 2
@ 110 "/home/xawlw/kernel/arg/arch/arm/include/asm/atomic.h" 1
	dmb
@ 0 "" 2
	.arm
	.syntax unified
	cmp	r3, #0
	beq	.L509
	ldr	r0, [r5, #88]
	mov	r2, #32
	mov	r1, r4
	ldr	r3, [r0, #8]
	ldr	r3, [r3, #16]
	blx	r3
	subs	r2, r0, #0
	beq	.L509
	.syntax divided
@ 82 "/home/xawlw/kernel/arg/arch/arm/include/asm/atomic.h" 1
	@ atomic_sub
1:	ldrex	r3, [r6]
	sub	r3, r3, #1
	strex	r1, r3, [r6]
	teq	r1, #0
	bne	1b
@ 0 "" 2
	.arm
	.syntax unified
	ldr	r0, [r7]
	movw	r1, #:lower16:.LC2
	ldrd	r4, [sp]
	movt	r1, #:upper16:.LC2
	ldrd	r6, [sp, #8]
	ldr	r8, [sp, #16]
	ldr	lr, [sp, #20]
	add	r0, r0, #32
	add	sp, sp, #24
	b	dev_err
.L511:
	mov	r3, #0
	str	r3, [r5, #164]
	b	.L509
	.fnend
	.size	rmnet_smd_notify_complete, .-rmnet_smd_notify_complete
	.align	2
	.syntax unified
	.arm
	.fpu softvfp
	.type	rmnet_sdio_notify_complete, %function
rmnet_sdio_notify_complete:
	.fnstart
	@ args = 0, pretend = 0, frame = 0
	@ frame_needed = 0, uses_anonymous_args = 0
	strd	r4, [sp, #-24]!
	.save {r4, r5, r6, r7, r8, lr}
	strd	r6, [sp, #8]
	str	r8, [sp, #16]
	str	lr, [sp, #20]
	ldr	r4, [r1, #32]
	ldr	r2, [r1, #44]
	ldr	r7, [r4, #76]
	cmn	r2, #104
	beq	.L536
	cmp	r2, #0
	mov	r5, r1
	beq	.L537
	cmn	r2, #108
	beq	.L536
	ldr	r0, [r7]
	movw	r1, #:lower16:.LC3
	movt	r1, #:upper16:.LC3
	add	r0, r0, #32
	bl	dev_err
.L537:
	ldr	r3, [r4, #312]
	tst	r3, #2
	beq	.L534
	add	r6, r4, #188
	.syntax divided
@ 98 "/home/xawlw/kernel/arg/arch/arm/include/asm/atomic.h" 1
	dmb
@ 0 "" 2
@ 100 "/home/xawlw/kernel/arg/arch/arm/include/asm/atomic.h" 1
	@ atomic_sub_return
1:	ldrex	r3, [r6]
	sub	r3, r3, #1
	strex	r2, r3, [r6]
	teq	r2, #0
	bne	1b
@ 0 "" 2
@ 110 "/home/xawlw/kernel/arg/arch/arm/include/asm/atomic.h" 1
	dmb
@ 0 "" 2
	.arm
	.syntax unified
	cmp	r3, #0
	beq	.L534
	ldr	r0, [r4, #88]
	mov	r2, #32
	mov	r1, r5
	ldr	r3, [r0, #8]
	ldr	r3, [r3, #16]
	blx	r3
	subs	r2, r0, #0
	bne	.L558
.L534:
	ldrd	r4, [sp]
	ldrd	r6, [sp, #8]
	ldr	r8, [sp, #16]
	add	sp, sp, #20
	ldr	pc, [sp], #4
.L536:
	mov	r3, #0
	str	r3, [r4, #188]
	b	.L534
.L558:
	.syntax divided
@ 82 "/home/xawlw/kernel/arg/arch/arm/include/asm/atomic.h" 1
	@ atomic_sub
1:	ldrex	r3, [r6]
	sub	r3, r3, #1
	strex	r1, r3, [r6]
	teq	r1, #0
	bne	1b
@ 0 "" 2
	.arm
	.syntax unified
	ldr	r0, [r7]
	movw	r1, #:lower16:.LC4
	ldrd	r4, [sp]
	movt	r1, #:upper16:.LC4
	ldrd	r6, [sp, #8]
	ldr	r8, [sp, #16]
	ldr	lr, [sp, #20]
	add	r0, r0, #32
	add	sp, sp, #24
	b	dev_err
	.fnend
	.size	rmnet_sdio_notify_complete, .-rmnet_sdio_notify_complete
	.align	2
	.syntax unified
	.arm
	.fpu softvfp
	.type	rmnet_sdio_control_rx_work, %function
rmnet_sdio_control_rx_work:
	.fnstart
	@ args = 0, pretend = 0, frame = 0
	@ frame_needed = 0, uses_anonymous_args = 0
	strd	r4, [sp, #-36]!
	.save {r4, r5, r6, r7, r8, r9, r10, fp, lr}
	mov	r5, r0
	strd	r6, [sp, #8]
	sub	r6, r0, #32
	strd	r8, [sp, #16]
	sub	r8, r0, #112
	mov	r9, #512
	strd	r10, [sp, #24]
	mov	r10, #256
	str	lr, [sp, #32]
	.pad #4
	sub	sp, sp, #4
	ldr	fp, [r0, #-136]
	b	.L562
.L565:
	ldrd	r2, [r4]
	str	r3, [r2, #4]
	str	r2, [r3]
	str	r10, [r4]
	str	r9, [r4, #4]
	ldr	r3, [r5, #-104]
	sub	r3, r3, #1
	str	r3, [r5, #-104]
	bl	_raw_spin_unlock_irqrestore
	ldr	r3, [r4, #-4]
	cmn	r3, #19
	bne	.L564
	ldr	r3, [r5, #148]
	add	r3, r3, #1
	str	r3, [r5, #148]
	ldr	r0, [r4, #-8]
	bl	kfree
	mov	r0, r7
	bl	kfree
.L562:
	mov	r0, r6
	bl	_raw_spin_lock_irqsave
	ldr	r4, [r5, #-112]
	mov	r3, r0
	mov	r0, r6
	mov	r1, r3
	cmp	r4, r8
	sub	r7, r4, #8
	bne	.L565
.L560:
	add	sp, sp, #4
	@ sp needed
	ldrd	r4, [sp]
	ldrd	r6, [sp, #8]
	ldrd	r8, [sp, #16]
	ldrd	r10, [sp, #24]
	ldr	lr, [sp, #32]
	add	sp, sp, #36
	b	_raw_spin_unlock_irqrestore
.L564:
	ldr	r0, [fp]
	movw	r1, #:lower16:.LC5
	movt	r1, #:upper16:.LC5
	add	r0, r0, #32
	add	sp, sp, #4
	@ sp needed
	ldrd	r4, [sp]
	ldrd	r6, [sp, #8]
	ldrd	r8, [sp, #16]
	ldrd	r10, [sp, #24]
	ldr	lr, [sp, #32]
	add	sp, sp, #36
	b	dev_err
	.fnend
	.size	rmnet_sdio_control_rx_work, .-rmnet_sdio_control_rx_work
	.align	2
	.syntax unified
	.arm
	.fpu softvfp
	.type	gser_setup, %function
gser_setup:
	.fnstart
	@ args = 0, pretend = 0, frame = 0
	@ frame_needed = 0, uses_anonymous_args = 0
	strd	r4, [sp, #-24]!
	.save {r4, r5, r6, r7, r8, lr}
	movw	ip, #8482
	mov	r5, r0
	strd	r6, [sp, #8]
	str	r8, [sp, #16]
	str	lr, [sp, #20]
	ldrh	r3, [r1]	@ unaligned
	ldr	lr, [r0, #20]
	ldrh	r2, [r1, #6]	@ unaligned
	rev16	r3, r3
	uxth	r3, r3
	ldr	r6, [lr, #24]
	cmp	r3, ip
	ldr	r4, [r6, #4]
	beq	.L568
	movw	r1, #41249
	cmp	r3, r1
	beq	.L569
	movw	r1, #8480
	cmp	r3, r1
	beq	.L577
.L573:
	mvn	r4, #94
.L566:
	mov	r0, r4
	ldrd	r4, [sp]
	ldrd	r6, [sp, #8]
	ldr	r8, [sp, #16]
	add	sp, sp, #20
	ldr	pc, [sp], #4
.L577:
	cmp	r2, #7
	bne	.L573
	ldr	r1, [r6]
	mov	r7, r2
	movw	r3, #:lower16:gser_complete_set_line_coding
	movt	r3, #:upper16:gser_complete_set_line_coding
	ldr	r2, [r1, #4]
	str	r0, [r2]
	str	r3, [r4, #28]
.L571:
	ldrb	r3, [r4, #26]	@ zero_extendqisi2
	str	r7, [r4, #4]
	mov	r1, r4
	mov	r2, #32
	bfc	r3, #1, #1
	strb	r3, [r4, #26]
	ldr	r3, [r6]
	ldr	r0, [r3, #4]
	ldr	r3, [r0, #8]
	ldr	r3, [r3, #16]
	blx	r3
	subs	r4, r0, #0
	bge	.L566
	ldr	r0, [r6]
	movw	r1, #:lower16:.LC6
	mov	r3, r4
	ldrb	r2, [r5, #137]	@ zero_extendqisi2
	movt	r1, #:upper16:.LC6
	add	r0, r0, #32
	bl	dev_err
	b	.L566
.L569:
	cmp	r2, #7
	add	r1, r0, #160
	ldr	r0, [r4]
	movcc	r7, r2
	movcs	r7, #7
	mov	r2, r7
	bl	memcpy
	b	.L571
.L568:
	ldr	r8, [r0, #132]
	ldrh	r2, [r1, #2]	@ unaligned
	cmp	r8, #0
	strh	r2, [r0, #168]	@ movhi
	uxth	r2, r2
	beq	.L574
	ldrb	r1, [r0, #137]	@ zero_extendqisi2
	movw	r3, #:lower16:.LANCHOR1
	mov	r7, #0
	movt	r3, #:upper16:.LANCHOR1
	add	r1, r1, r1, lsl #1
	add	r3, r3, r1, lsl #2
	ldrb	r1, [r3, #2252]	@ zero_extendqisi2
	blx	r8
	b	.L571
.L574:
	mov	r7, r8
	b	.L571
	.fnend
	.size	gser_setup, .-gser_setup
	.align	2
	.syntax unified
	.arm
	.fpu softvfp
	.type	acm_setup, %function
acm_setup:
	.fnstart
	@ args = 0, pretend = 0, frame = 0
	@ frame_needed = 0, uses_anonymous_args = 0
	strd	r4, [sp, #-24]!
	.save {r4, r5, r6, r7, r8, lr}
	movw	ip, #8482
	mov	r5, r0
	strd	r6, [sp, #8]
	str	r8, [sp, #16]
	str	lr, [sp, #20]
	ldrh	r3, [r1]	@ unaligned
	ldr	lr, [r0, #20]
	ldrh	r2, [r1, #6]	@ unaligned
	rev16	r3, r3
	uxth	r3, r3
	ldr	r6, [lr, #24]
	cmp	r3, ip
	ldr	r4, [r6, #4]
	beq	.L580
	movw	r1, #41249
	cmp	r3, r1
	beq	.L581
	movw	r1, #8480
	cmp	r3, r1
	beq	.L589
.L585:
	mvn	r4, #94
.L578:
	mov	r0, r4
	ldrd	r4, [sp]
	ldrd	r6, [sp, #8]
	ldr	r8, [sp, #16]
	add	sp, sp, #20
	ldr	pc, [sp], #4
.L589:
	cmp	r2, #7
	bne	.L585
	ldr	r1, [r6]
	mov	r7, r2
	movw	r3, #:lower16:acm_complete_set_line_coding
	movt	r3, #:upper16:acm_complete_set_line_coding
	ldr	r2, [r1, #4]
	str	r0, [r2]
	str	r3, [r4, #28]
.L583:
	ldrb	r3, [r4, #26]	@ zero_extendqisi2
	str	r7, [r4, #4]
	mov	r1, r4
	mov	r2, #32
	bfc	r3, #1, #1
	strb	r3, [r4, #26]
	ldr	r3, [r6]
	ldr	r0, [r3, #4]
	ldr	r3, [r0, #8]
	ldr	r3, [r3, #16]
	blx	r3
	subs	r4, r0, #0
	bge	.L578
	ldr	r0, [r6]
	movw	r1, #:lower16:.LC7
	mov	r3, r4
	ldrb	r2, [r5, #138]	@ zero_extendqisi2
	movt	r1, #:upper16:.LC7
	add	r0, r0, #32
	bl	dev_err
	b	.L578
.L581:
	cmp	r2, #7
	add	r1, r0, #160
	ldr	r0, [r4]
	movcc	r7, r2
	movcs	r7, #7
	mov	r2, r7
	bl	memcpy
	b	.L583
.L580:
	ldr	r8, [r0, #132]
	ldrh	r2, [r1, #2]	@ unaligned
	cmp	r8, #0
	strh	r2, [r0, #168]	@ movhi
	uxth	r2, r2
	beq	.L586
	ldrb	r1, [r0, #138]	@ zero_extendqisi2
	movw	r3, #:lower16:.LANCHOR1
	mov	r7, #0
	movt	r3, #:upper16:.LANCHOR1
	add	r1, r1, r1, lsl #1
	add	r3, r3, r1, lsl #2
	ldrb	r1, [r3, #2288]	@ zero_extendqisi2
	blx	r8
	b	.L583
.L586:
	mov	r7, r8
	b	.L583
	.fnend
	.size	acm_setup, .-acm_setup
	.align	2
	.syntax unified
	.arm
	.fpu softvfp
	.type	ecm_setup, %function
ecm_setup:
	.fnstart
	@ args = 0, pretend = 0, frame = 0
	@ frame_needed = 0, uses_anonymous_args = 0
	strd	r4, [sp, #-16]!
	.save {r4, r5, r6, lr}
	movw	r3, #17185
	str	r6, [sp, #8]
	str	lr, [sp, #12]
	ldr	ip, [r0, #20]
	.pad #8
	sub	sp, sp, #8
	ldrh	r2, [r1]	@ unaligned
	ldrh	lr, [r1, #4]	@ unaligned
	ldrh	r6, [r1, #2]	@ unaligned
	ldr	r5, [ip, #24]
	cmp	r2, r3
	ldrh	ip, [r1, #6]	@ unaligned
	ldr	r3, [r5, #4]
	bne	.L595
	cmp	ip, #0
	bne	.L595
	ldrb	r2, [r0, #140]	@ zero_extendqisi2
	cmp	r2, lr
	bne	.L595
	strh	r6, [r0, #90]	@ movhi
	ldrb	r0, [r3, #26]	@ zero_extendqisi2
	mov	r4, r1
	str	ip, [r3, #4]
	mov	r1, r3
	mov	r2, #32
	bfi	r0, ip, #1, #1
	strb	r0, [r3, #26]
	ldr	r3, [r5]
	ldr	r0, [r3, #4]
	ldr	r3, [r0, #8]
	ldr	r3, [r3, #16]
	blx	r3
	subs	r6, r0, #0
	blt	.L598
.L590:
	mov	r0, r6
	add	sp, sp, #8
	@ sp needed
	ldrd	r4, [sp]
	ldr	r6, [sp, #8]
	add	sp, sp, #12
	ldr	pc, [sp], #4
.L598:
	ldr	r0, [r5]
	movw	r1, #:lower16:.LC8
	str	r6, [sp]
	movt	r1, #:upper16:.LC8
	ldrb	r3, [r4, #1]	@ zero_extendqisi2
	ldrb	r2, [r4]	@ zero_extendqisi2
	add	r0, r0, #32
	bl	dev_err
	b	.L590
.L595:
	mvn	r6, #94
	b	.L590
	.fnend
	.size	ecm_setup, .-ecm_setup
	.align	2
	.syntax unified
	.arm
	.fpu softvfp
	.type	ncm_setup, %function
ncm_setup:
	.fnstart
	@ args = 0, pretend = 0, frame = 0
	@ frame_needed = 0, uses_anonymous_args = 0
	strd	r4, [sp, #-24]!
	.save {r4, r5, r6, r7, r8, lr}
	movw	ip, #8586
	mov	r4, r1
	strd	r6, [sp, #8]
	str	r8, [sp, #16]
	str	lr, [sp, #20]
	ldrh	r3, [r1]	@ unaligned
	.pad #8
	sub	sp, sp, #8
	ldr	lr, [r0, #20]
	ldrh	r7, [r1, #2]	@ unaligned
	ldrh	r8, [r1, #4]	@ unaligned
	rev16	r3, r3
	ldrh	r2, [r1, #6]	@ unaligned
	uxth	r3, r3
	ldr	r6, [lr, #24]
	uxth	r1, r7
	cmp	r3, ip
	ldr	r5, [r6, #4]
	beq	.L601
	bls	.L639
	movw	ip, #41347
	cmp	r3, ip
	beq	.L606
	bls	.L640
	movw	ip, #41349
	cmp	r3, ip
	beq	.L609
	movw	ip, #41353
	cmp	r3, ip
	bne	.L637
	adds	r1, r1, #0
	movne	r1, #1
	cmp	r2, #1
	orrls	r1, r1, #1
	cmp	r1, #0
	bne	.L637
	ldrb	r3, [r0, #140]	@ zero_extendqisi2
	cmp	r3, r8
	bne	.L637
	ldrb	r2, [r0, #172]	@ zero_extendqisi2
	mov	r1, #2
	ldr	r3, [r5]
	strh	r2, [r3]	@ unaligned
.L611:
	ldrb	r3, [r5, #26]	@ zero_extendqisi2
	str	r1, [r5, #4]
	mov	r2, #32
	mov	r1, r5
	bfc	r3, #1, #1
	strb	r3, [r5, #26]
	ldr	r3, [r6]
	ldr	r0, [r3, #4]
	ldr	r3, [r0, #8]
	ldr	r3, [r3, #16]
	blx	r3
	subs	r5, r0, #0
	bge	.L599
	ldr	r0, [r6]
	movw	r1, #:lower16:.LC9
	str	r5, [sp]
	movt	r1, #:upper16:.LC9
	ldrb	r3, [r4, #1]	@ zero_extendqisi2
	ldrb	r2, [r4]	@ zero_extendqisi2
	add	r0, r0, #32
	bl	dev_err
	b	.L599
.L639:
	movw	ip, #8580
	cmp	r3, ip
	beq	.L603
	movw	ip, #8582
	cmp	r3, ip
	beq	.L604
	movw	r1, #8515
	cmp	r3, r1
	beq	.L641
.L637:
	mvn	r5, #94
.L599:
	mov	r0, r5
	add	sp, sp, #8
	@ sp needed
	ldrd	r4, [sp]
	ldrd	r6, [sp, #8]
	ldr	r8, [sp, #16]
	add	sp, sp, #20
	ldr	pc, [sp], #4
.L604:
	cmp	r1, #0
	cmpeq	r2, #4
	bne	.L637
	ldrb	r3, [r0, #140]	@ zero_extendqisi2
	cmp	r3, r8
	bne	.L637
	movw	r3, #:lower16:ncm_ep0out_complete
	mov	r1, #4
	str	r0, [r5, #32]
	movt	r3, #:upper16:ncm_ep0out_complete
	str	r3, [r5, #28]
	b	.L611
.L609:
	adds	r1, r1, #0
	movne	r1, #1
	cmp	r2, #3
	orrls	r1, r1, #1
	cmp	r1, #0
	bne	.L637
	ldrb	r3, [r0, #140]	@ zero_extendqisi2
	cmp	r3, r8
	bne	.L637
	ldr	r2, [r0, #104]
	mov	r1, #4
	ldr	r3, [r5]
	str	r2, [r3]	@ unaligned
	b	.L611
.L640:
	movw	ip, #41344
	cmp	r3, ip
	bne	.L637
	adds	r1, r1, #0
	movne	r1, #1
	cmp	r2, #0
	moveq	r1, #1
	cmp	r1, #0
	bne	.L637
	ldrb	r3, [r0, #140]	@ zero_extendqisi2
	cmp	r3, r8
	bne	.L637
	cmp	r2, #28
	ldr	r1, .L642
	movcc	r7, r2
	movcs	r7, #28
	ldr	r0, [r5]
	mov	r2, r7
	bl	memcpy
	mov	r1, r7
	b	.L611
.L603:
	cmp	r2, #0
	bne	.L637
	ldrb	r3, [r0, #140]	@ zero_extendqisi2
	cmp	r3, r8
	bne	.L637
	cmp	r1, #0
	beq	.L612
	cmp	r1, #1
	bne	.L637
	ldr	r3, .L642+4
	mov	r1, r2
	str	r3, [r0, #168]
	b	.L611
.L641:
	cmp	r2, #0
	bne	.L637
	ldrb	r3, [r0, #140]	@ zero_extendqisi2
	cmp	r3, r8
	bne	.L637
	mov	r1, r2
	strh	r7, [r0, #90]	@ movhi
	b	.L611
.L606:
	adds	r1, r1, #0
	movne	r1, #1
	cmp	r2, #1
	orrls	r1, r1, #1
	cmp	r1, #0
	bne	.L637
	ldrb	r3, [r0, #140]	@ zero_extendqisi2
	cmp	r3, r8
	bne	.L637
	ldr	r3, [r0, #168]
	mov	r1, #2
	ldr	r0, .L642+8
	ldr	r2, [r5]
	subs	r3, r3, r0
	movne	r3, #1
	strh	r3, [r2]	@ unaligned
	b	.L611
.L601:
	cmp	r2, #0
	bne	.L637
	ldrb	r3, [r0, #140]	@ zero_extendqisi2
	cmp	r3, r8
	bne	.L637
	cmp	r1, #0
	beq	.L614
	cmp	r1, #1
	bne	.L637
	mov	lr, #16777216
	strb	r1, [r0, #172]
.L616:
	ldr	ip, [r0, #168]
	mov	r1, #0
	ldr	r2, [ip, #4]
	bic	r2, r2, #16777216
	str	r2, [ip, #4]
	ldr	r2, [r0, #168]
	ldr	r3, [r2, #4]
	orr	r3, r3, lr
	str	r3, [r2, #4]
	b	.L611
.L614:
	mov	lr, r1
	strb	r1, [r0, #172]
	b	.L616
.L612:
	ldr	r3, .L642+8
	str	r3, [r0, #168]
	b	.L611
.L643:
	.align	2
.L642:
	.word	.LANCHOR0+20
	.word	.LANCHOR0+92
	.word	.LANCHOR0+48
	.fnend
	.size	ncm_setup, .-ncm_setup
	.align	2
	.syntax unified
	.arm
	.fpu softvfp
	.type	rmnet_mux_notify_complete, %function
rmnet_mux_notify_complete:
	.fnstart
	@ args = 0, pretend = 0, frame = 0
	@ frame_needed = 0, uses_anonymous_args = 0
	strd	r4, [sp, #-24]!
	.save {r4, r5, r6, r7, r8, lr}
	strd	r6, [sp, #8]
	str	r8, [sp, #16]
	str	lr, [sp, #20]
	ldr	r4, [r1, #32]
	ldr	r2, [r1, #44]
	ldr	r7, [r4, #76]
	cmn	r2, #104
	beq	.L646
	cmp	r2, #0
	mov	r5, r1
	beq	.L647
	cmn	r2, #108
	beq	.L646
	ldr	r0, [r7]
	movw	r1, #:lower16:.LC10
	movt	r1, #:upper16:.LC10
	add	r0, r0, #32
	bl	dev_err
.L647:
	add	r6, r4, #364
	.syntax divided
@ 98 "/home/xawlw/kernel/arg/arch/arm/include/asm/atomic.h" 1
	dmb
@ 0 "" 2
@ 100 "/home/xawlw/kernel/arg/arch/arm/include/asm/atomic.h" 1
	@ atomic_sub_return
1:	ldrex	r3, [r6]
	sub	r3, r3, #1
	strex	r2, r3, [r6]
	teq	r2, #0
	bne	1b
@ 0 "" 2
@ 110 "/home/xawlw/kernel/arg/arch/arm/include/asm/atomic.h" 1
	dmb
@ 0 "" 2
	.arm
	.syntax unified
	cmp	r3, #0
	beq	.L644
	ldr	r0, [r4, #88]
	mov	r2, #32
	mov	r1, r5
	ldr	r3, [r0, #8]
	ldr	r3, [r3, #16]
	blx	r3
	subs	r2, r0, #0
	bne	.L665
.L644:
	ldrd	r4, [sp]
	ldrd	r6, [sp, #8]
	ldr	r8, [sp, #16]
	add	sp, sp, #20
	ldr	pc, [sp], #4
.L665:
	.syntax divided
@ 82 "/home/xawlw/kernel/arg/arch/arm/include/asm/atomic.h" 1
	@ atomic_sub
1:	ldrex	r3, [r6]
	sub	r3, r3, #1
	strex	r1, r3, [r6]
	teq	r1, #0
	bne	1b
@ 0 "" 2
	.arm
	.syntax unified
	ldr	r0, [r7]
	movw	r1, #:lower16:.LC4
	ldrd	r4, [sp]
	movt	r1, #:upper16:.LC4
	ldrd	r6, [sp, #8]
	ldr	r8, [sp, #16]
	ldr	lr, [sp, #20]
	add	r0, r0, #32
	add	sp, sp, #24
	b	dev_err
.L646:
	mov	r3, #0
	str	r3, [r4, #364]
	b	.L644
	.fnend
	.size	rmnet_mux_notify_complete, .-rmnet_mux_notify_complete
	.align	2
	.syntax unified
	.arm
	.fpu softvfp
	.type	rmnet_mux_setup, %function
rmnet_mux_setup:
	.fnstart
	@ args = 0, pretend = 0, frame = 0
	@ frame_needed = 0, uses_anonymous_args = 0
	strd	r4, [sp, #-32]!
	.save {r4, r5, r6, r7, r8, r9, r10, lr}
	strd	r6, [sp, #8]
	strd	r8, [sp, #16]
	str	r10, [sp, #24]
	str	lr, [sp, #28]
	ldr	r2, [r0, #20]
	ldr	r3, [r0, #360]
	ldrh	r8, [r1, #2]	@ unaligned
	ldrh	r6, [r1, #6]	@ unaligned
	ldr	r7, [r2, #24]
	cmp	r3, #0
	ldr	r5, [r7, #4]
	beq	.L674
	ldrh	r3, [r1]	@ unaligned
	movw	r2, #8482
	mov	r4, r0
	rev16	r3, r3
	uxth	r3, r3
	cmp	r3, r2
	beq	.L668
	movw	r2, #41217
	cmp	r3, r2
	beq	.L669
	cmp	r3, #8448
	beq	.L679
.L676:
	mvn	r4, #94
.L666:
	mov	r0, r4
	ldrd	r4, [sp]
	ldrd	r6, [sp, #8]
	ldrd	r8, [sp, #16]
	ldr	r10, [sp, #24]
	add	sp, sp, #28
	ldr	pc, [sp], #4
.L669:
	cmp	r8, #0
	bne	.L676
	add	r8, r0, #356
	mov	r0, r8
	bl	_raw_spin_lock
	mov	r3, r4
	ldr	r9, [r3, #328]!
	cmp	r9, r3
	beq	.L680
	ldrd	r2, [r9]
	mov	ip, #256
	mov	r1, #512
	mov	r0, r8
	mov	r10, r9
	str	r3, [r2, #4]
	str	r2, [r3]
	str	ip, [r9]
	str	r1, [r9, #4]
	ldr	r3, [r4, #336]
	sub	r3, r3, #1
	str	r3, [r4, #336]
	bl	_raw_spin_unlock
	ldmdb	r9, {r1, r8}
	ldr	r0, [r5]
	cmp	r6, r8
	movcc	r8, r6
	mov	r2, r8
	bl	memcpy
	movw	r3, #:lower16:rmnet_mux_response_complete
	str	r4, [r5, #32]
	movt	r3, #:upper16:rmnet_mux_response_complete
	str	r3, [r5, #28]
	ldr	r0, [r10, #-8]!
	bl	kfree
	mov	r0, r10
	bl	kfree
	ldr	r3, [r4, #404]
	cmp	r8, r6
	movge	r6, #0
	movlt	r6, #1
	add	r3, r3, #1
	str	r3, [r4, #404]
.L671:
	ldrb	r3, [r5, #26]	@ zero_extendqisi2
	str	r8, [r5, #4]
	mov	r1, r5
	mov	r2, #32
	bfi	r3, r6, #1, #1
	strb	r3, [r5, #26]
	ldr	r3, [r7]
	ldr	r0, [r3, #4]
	ldr	r3, [r0, #8]
	ldr	r3, [r3, #16]
	blx	r3
	subs	r4, r0, #0
	bge	.L666
	ldr	r0, [r7]
	movw	r1, #:lower16:.LC11
	mov	r2, r4
	movt	r1, #:upper16:.LC11
	add	r0, r0, #32
	bl	dev_err
	b	.L666
.L679:
	movw	r3, #:lower16:rmnet_mux_command_complete
	mov	r8, r6
	str	r0, [r5, #32]
	movt	r3, #:upper16:rmnet_mux_command_complete
	mov	r6, #0
	str	r3, [r5, #28]
	b	.L671
.L668:
	ldr	r3, [r0, #340]
	adds	r6, r6, #0
	movne	r6, #1
	ands	r8, r8, #1
	movne	r8, #0
	orrne	r3, r3, #2
	biceq	r3, r3, #2
	str	r3, [r0, #340]
	b	.L671
.L674:
	mvn	r4, #106
	b	.L666
.L680:
	mov	r0, r8
	mvn	r4, #94
	bl	_raw_spin_unlock
	b	.L666
	.fnend
	.size	rmnet_mux_setup, .-rmnet_mux_setup
	.align	2
	.syntax unified
	.arm
	.fpu softvfp
	.type	rmnet_mux_smd_start_rx, %function
rmnet_mux_smd_start_rx:
	.fnstart
	@ args = 0, pretend = 0, frame = 8
	@ frame_needed = 0, uses_anonymous_args = 0
	strd	r4, [sp, #-36]!
	.save {r4, r5, r6, r7, r8, r9, r10, fp, lr}
	mov	r5, r0
	strd	r6, [sp, #8]
	add	r6, r0, #356
	add	r7, r0, #104
	strd	r8, [sp, #16]
	mov	r9, #256
	mov	r8, #512
	strd	r10, [sp, #24]
	str	lr, [sp, #32]
	ldr	r3, [r0, #76]
	.pad #12
	sub	sp, sp, #12
	mov	r0, r6
	str	r3, [sp, #4]
	bl	_raw_spin_lock_irqsave
	mov	fp, r0
	b	.L682
.L684:
	ldrd	r2, [r4]
	str	r3, [r2, #4]
	str	r2, [r3]
	str	r9, [r4]
	str	r8, [r4, #4]
	bl	_raw_spin_unlock_irqrestore
	ldr	r0, [r5, #80]
	mov	r2, #32
	sub	r1, r4, #36
	ldr	r3, [r0, #8]
	ldr	r3, [r3, #16]
	blx	r3
	mov	r10, r0
	mov	r0, r6
	bl	_raw_spin_lock_irqsave
	cmp	r10, #0
	mov	fp, r0
	bne	.L688
.L682:
	ldr	r4, [r5, #104]
	mov	r1, fp
	mov	r0, r6
	cmp	r7, r4
	bne	.L684
.L683:
	mov	r1, fp
	mov	r0, r6
	add	sp, sp, #12
	@ sp needed
	ldrd	r4, [sp]
	ldrd	r6, [sp, #8]
	ldrd	r8, [sp, #16]
	ldrd	r10, [sp, #24]
	ldr	lr, [sp, #32]
	add	sp, sp, #36
	b	_raw_spin_unlock_irqrestore
.L688:
	ldr	r3, [sp, #4]
	movw	r1, #:lower16:.LC0
	mov	r2, r10
	movt	r1, #:upper16:.LC0
	ldr	r0, [r3]
	add	r0, r0, #32
	bl	dev_err
	ldr	r3, [r5, #108]
	str	r4, [r5, #108]
	str	r7, [r4]
	str	r3, [r4, #4]
	str	r4, [r3]
	b	.L683
	.fnend
	.size	rmnet_mux_smd_start_rx, .-rmnet_mux_smd_start_rx
	.align	2
	.syntax unified
	.arm
	.fpu softvfp
	.type	composite_suspend, %function
composite_suspend:
	.fnstart
	@ args = 0, pretend = 0, frame = 0
	@ frame_needed = 0, uses_anonymous_args = 0
	strd	r4, [sp, #-16]!
	.save {r4, r5, r6, lr}
	mov	r5, r0
	add	r0, r0, #32
	str	r6, [sp, #8]
	str	lr, [sp, #12]
	bl	dev_get_drvdata
	ldr	r3, [r0, #12]
	mov	r6, r0
	cmp	r3, #0
	beq	.L690
	ldr	r4, [r3, #36]!
	cmp	r3, r4
	sub	r4, r4, #64
	beq	.L690
.L691:
	ldr	r2, [r4, #48]
	mov	r0, r4
	cmp	r2, #0
	beq	.L692
	blx	r2
	ldr	r3, [r6, #12]
	ldr	r4, [r4, #64]
	add	r3, r3, #36
	cmp	r3, r4
	sub	r4, r4, #64
	bne	.L691
.L690:
	movw	r3, #:lower16:.LANCHOR1
	movt	r3, #:upper16:.LANCHOR1
	ldr	r3, [r3, #2316]
	ldr	r3, [r3, #36]
	cmp	r3, #0
	beq	.L694
	mov	r0, r6
	blx	r3
.L694:
	ldrb	r3, [r6, #16]	@ zero_extendqisi2
	orr	r3, r3, #1
	strb	r3, [r6, #16]
	ldr	r3, [r5]
	ldr	r3, [r3, #16]
	cmp	r3, #0
	beq	.L689
	mov	r0, r5
	mov	r1, #2
	ldrd	r4, [sp]
	ldr	r6, [sp, #8]
	ldr	lr, [sp, #12]
	add	sp, sp, #16
	bx	r3
.L692:
	ldr	r4, [r4, #64]
	cmp	r3, r4
	sub	r4, r4, #64
	bne	.L691
	b	.L690
.L689:
	ldrd	r4, [sp]
	ldr	r6, [sp, #8]
	add	sp, sp, #12
	ldr	pc, [sp], #4
	.fnend
	.size	composite_suspend, .-composite_suspend
	.align	2
	.syntax unified
	.arm
	.fpu softvfp
	.type	composite_resume, %function
composite_resume:
	.fnstart
	@ args = 0, pretend = 0, frame = 0
	@ frame_needed = 0, uses_anonymous_args = 0
	strd	r4, [sp, #-16]!
	.save {r4, r5, r6, lr}
	str	r6, [sp, #8]
	mov	r6, r0
	add	r0, r0, #32
	str	lr, [sp, #12]
	bl	dev_get_drvdata
	movw	r3, #:lower16:.LANCHOR1
	mov	r5, r0
	movt	r3, #:upper16:.LANCHOR1
	ldr	r3, [r3, #2316]
	ldr	r3, [r3, #40]
	cmp	r3, #0
	beq	.L705
	blx	r3
.L705:
	ldr	r2, [r5, #12]
	cmp	r2, #0
	beq	.L707
	mov	r1, r2
	ldr	r4, [r1, #36]!
	cmp	r1, r4
	sub	r4, r4, #64
	beq	.L709
.L708:
	ldr	r3, [r4, #52]
	mov	r0, r4
	cmp	r3, #0
	beq	.L710
	blx	r3
	ldr	r2, [r5, #12]
	ldr	r4, [r4, #64]
	add	r1, r2, #36
	cmp	r1, r4
	sub	r4, r4, #64
	bne	.L708
.L709:
	ldrb	r3, [r2, #23]	@ zero_extendqisi2
	cmp	r3, #0
	ldrne	r1, [r5, #64]
	moveq	r1, #500
	mulne	r1, r1, r3
	ldr	r3, [r6]
	ldr	r3, [r3, #16]
	cmp	r3, #0
	beq	.L707
	mov	r0, r6
	blx	r3
.L707:
	ldrb	r3, [r5, #16]	@ zero_extendqisi2
	bfc	r3, #0, #1
	strb	r3, [r5, #16]
	ldrd	r4, [sp]
	ldr	r6, [sp, #8]
	add	sp, sp, #12
	ldr	pc, [sp], #4
.L710:
	ldr	r4, [r4, #64]
	cmp	r1, r4
	sub	r4, r4, #64
	bne	.L708
	b	.L709
	.fnend
	.size	composite_resume, .-composite_resume
	.align	2
	.syntax unified
	.arm
	.fpu softvfp
	.type	audio_pcm_hw_params, %function
audio_pcm_hw_params:
	.fnstart
	@ args = 0, pretend = 0, frame = 0
	@ frame_needed = 0, uses_anonymous_args = 0
	ldr	r3, [r1, #284]
	movw	r2, #44100
	ldr	ip, [r1, #296]
	cmp	r3, #2
	cmpeq	ip, r2
	bne	.L730
	strd	r4, [sp, #-24]!
	.save {r4, r5, r6, r7, r8, lr}
	add	r5, r0, #172
	strd	r6, [sp, #8]
	str	r8, [sp, #16]
	str	lr, [sp, #20]
	ldr	ip, [r0]
	.pad #8
	sub	sp, sp, #8
	ldr	r3, [ip]
	ldr	lr, [r3, #500]
	add	lr, lr, #256
	ldrd	r2, [lr]
	orrs	r3, r2, r3
	beq	.L740
.L726:
	mov	r3, #2
	mov	lr, #0
	add	r2, r0, #184
	str	r3, [r0, #172]
	ldr	r3, [ip]
	ldr	r3, [r3, #500]
	str	r3, [r0, #176]
	str	lr, [r0, #192]
	ldr	r3, [ip]
	ldr	lr, [r1, #380]
	ldr	r3, [r3, #500]
	cmp	r3, #0
	beq	.L727
	ldr	ip, [r3, #284]
	cmp	ip, #0
	beq	.L727
.L728:
	mov	r6, #0
	mov	r4, r0
	mov	r7, r1
	mov	r0, r3
	str	r6, [sp]
	mov	r1, lr
	mov	r3, #208
	ldr	r8, [ip]
	blx	r8
	cmp	r0, r6
	str	r0, [r4, #180]
	beq	.L732
	ldr	r2, [r7, #380]
	cmp	r5, r6
	ldr	r3, [r4, #208]
	str	r2, [r4, #188]
	beq	.L729
	str	r5, [r3, #560]
	ldr	r2, [r4, #180]
	mov	r0, r6
	str	r2, [r3, #548]
	ldr	r2, [r4, #184]
	str	r2, [r3, #552]
	ldr	r2, [r4, #188]
	str	r2, [r3, #556]
.L724:
	add	sp, sp, #8
	@ sp needed
	ldrd	r4, [sp]
	ldrd	r6, [sp, #8]
	ldr	r8, [sp, #16]
	add	sp, sp, #20
	ldr	pc, [sp], #4
.L740:
	mvn	r2, #0
	mov	r3, #0
	strd	r2, [lr]
	ldr	ip, [r0]
	b	.L726
.L727:
	movw	ip, #:lower16:arm_dma_ops
	movt	ip, #:upper16:arm_dma_ops
	cmp	ip, #0
	bne	.L728
	.syntax divided
@ 170 "/home/xawlw/kernel/arg/arch/arm/include/asm/dma-mapping.h" 1
	.word 0xe7f001f2
@ 0 "" 2
	.arm
	.syntax unified
.L729:
	mov	r0, r5
	str	r5, [r3, #548]
	str	r5, [r3, #552]
	str	r5, [r3, #556]
	str	r5, [r3, #560]
	b	.L724
.L730:
	mvn	r0, #21
	bx	lr
.L732:
	mvn	r0, #11
	b	.L724
	.fnend
	.size	audio_pcm_hw_params, .-audio_pcm_hw_params
	.align	2
	.syntax unified
	.arm
	.fpu softvfp
	.type	audio_pcm_hw_free, %function
audio_pcm_hw_free:
	.fnstart
	@ args = 0, pretend = 0, frame = 0
	@ frame_needed = 0, uses_anonymous_args = 0
	strd	r4, [sp, #-12]!
	.save {r4, r5, lr}
	mov	r4, r0
	str	lr, [sp, #8]
	ldr	r2, [r0, #180]
	.pad #12
	sub	sp, sp, #12
	cmp	r2, #0
	beq	.L742
	ldr	r0, [r0]
	ldr	r3, [r4, #184]
	ldr	r1, [r4, #188]
	ldr	r0, [r0]
	ldr	r0, [r0, #500]
	cmp	r0, #0
	beq	.L743
	ldr	ip, [r0, #284]
	cmp	ip, #0
	beq	.L743
.L744:
	mov	lr, #0
	str	lr, [sp]
	ldr	r5, [ip, #4]
	blx	r5
.L742:
	mov	r3, #0
	mov	r0, r3
	str	r3, [r4, #180]
	add	sp, sp, #12
	@ sp needed
	ldrd	r4, [sp]
	add	sp, sp, #8
	ldr	pc, [sp], #4
.L743:
	movw	ip, #:lower16:arm_dma_ops
	movt	ip, #:upper16:arm_dma_ops
	cmp	ip, #0
	bne	.L744
	.syntax divided
@ 201 "/home/xawlw/kernel/arg/arch/arm/include/asm/dma-mapping.h" 1
	.word 0xe7f001f2
@ 0 "" 2
	.arm
	.syntax unified
	.fnend
	.size	audio_pcm_hw_free, .-audio_pcm_hw_free
	.align	2
	.syntax unified
	.arm
	.fpu softvfp
	.type	ffs_ep0_open, %function
ffs_ep0_open:
	.fnstart
	@ args = 0, pretend = 0, frame = 0
	@ frame_needed = 0, uses_anonymous_args = 0
	@ link register save eliminated.
	ldr	r3, [r0, #348]
	ldr	r2, [r3, #96]
	cmp	r2, #3
	beq	.L755
	add	r2, r3, #88
	str	r3, [r1, #124]
	.syntax divided
@ 44 "/home/xawlw/kernel/arg/arch/arm/include/asm/atomic.h" 1
	@ atomic_add
1:	ldrex	r1, [r2]
	add	r1, r1, #1
	strex	r0, r1, [r2]
	teq	r0, #0
	bne	1b
@ 0 "" 2
	.arm
	.syntax unified
	add	r2, r3, #92
	.syntax divided
@ 44 "/home/xawlw/kernel/arg/arch/arm/include/asm/atomic.h" 1
	@ atomic_add
1:	ldrex	r1, [r2]
	add	r1, r1, #1
	strex	r0, r1, [r2]
	teq	r0, #0
	bne	1b
@ 0 "" 2
	.arm
	.syntax unified
	mov	r0, #0
	bx	lr
.L755:
	mvn	r0, #15
	bx	lr
	.fnend
	.size	ffs_ep0_open, .-ffs_ep0_open
	.align	2
	.syntax unified
	.arm
	.fpu softvfp
	.type	ffs_epfile_open, %function
ffs_epfile_open:
	.fnstart
	@ args = 0, pretend = 0, frame = 0
	@ frame_needed = 0, uses_anonymous_args = 0
	.save {r4, lr}
	str	r4, [sp, #-8]!
	str	lr, [sp, #4]
	ldr	r2, [r0, #348]
	ldr	r3, [r2, #40]
	ldr	r3, [r3, #96]
	cmp	r3, #2
	bne	.L760
	str	r2, [r1, #124]
	ldr	r3, [r2, #40]
	add	r1, r3, #88
	.syntax divided
@ 44 "/home/xawlw/kernel/arg/arch/arm/include/asm/atomic.h" 1
	@ atomic_add
1:	ldrex	r0, [r1]
	add	r0, r0, #1
	strex	ip, r0, [r1]
	teq	ip, #0
	bne	1b
@ 0 "" 2
	.arm
	.syntax unified
	add	r1, r3, #92
	.syntax divided
@ 44 "/home/xawlw/kernel/arg/arch/arm/include/asm/atomic.h" 1
	@ atomic_add
1:	ldrex	r0, [r1]
	add	r0, r0, #1
	strex	ip, r0, [r1]
	teq	ip, #0
	bne	1b
@ 0 "" 2
	.arm
	.syntax unified
	mov	r3, #0
	mov	r0, r3
	str	r3, [r2, #36]
	ldr	r4, [sp]
	add	sp, sp, #4
	ldr	pc, [sp], #4
.L760:
	movw	r0, #:lower16:.LC12
	mov	r1, #948
	movt	r0, #:upper16:.LC12
	bl	warn_slowpath_null
	ldr	r4, [sp]
	add	sp, sp, #4
	mvn	r0, #18
	ldr	pc, [sp], #4
	.fnend
	.size	ffs_epfile_open, .-ffs_epfile_open
	.align	2
	.syntax unified
	.arm
	.fpu softvfp
	.type	do_mode_sense, %function
do_mode_sense:
	.fnstart
	@ args = 0, pretend = 0, frame = 0
	@ frame_needed = 0, uses_anonymous_args = 0
	strd	r4, [sp, #-32]!
	.save {r4, r5, r6, r7, r8, r9, r10, lr}
	strd	r6, [sp, #8]
	strd	r8, [sp, #16]
	str	r10, [sp, #24]
	str	lr, [sp, #28]
	ldrb	r3, [r0, #77]	@ zero_extendqisi2
	ldrb	r7, [r0, #76]	@ zero_extendqisi2
	ldr	r8, [r0, #104]
	ldr	r6, [r1]
	tst	r3, #247
	bne	.L769
	ldrb	r5, [r0, #78]	@ zero_extendqisi2
	lsr	r9, r5, #6
	and	r5, r5, #63
	cmp	r9, #3
	moveq	r3, #14592
	mvneq	r0, #21
	movteq	r3, 5
	streq	r3, [r8, #28]
	beq	.L761
	mov	r1, #8
	mov	r0, r6
	bl	__memzero
	sub	r3, r5, #63
	cmp	r7, #26
	ldrb	r2, [r8, #24]	@ zero_extendqisi2
	clz	r3, r3
	lsr	r3, r3, #5
	beq	.L775
	lsl	r2, r2, #6
	add	r4, r6, #8
	bic	r2, r2, #127
	movw	r10, #65535
	strb	r2, [r6, #3]
.L766:
	cmp	r5, #8
	movne	r5, r3
	orreq	r5, r3, #1
	cmp	r5, #0
	bne	.L767
.L769:
	mov	r3, #9216
	mvn	r0, #21
	movt	r3, 5
	str	r3, [r8, #28]
.L761:
	ldrd	r4, [sp]
	ldrd	r6, [sp, #8]
	ldrd	r8, [sp, #16]
	ldr	r10, [sp, #24]
	add	sp, sp, #28
	ldr	pc, [sp], #4
.L775:
	lsl	r2, r2, #6
	add	r4, r6, #4
	mov	r10, #255
	bic	r2, r2, #127
	strb	r2, [r6, #2]
	b	.L766
.L767:
	mov	r3, #10
	mov	r2, #8
	mov	r1, r3
	add	r0, r4, #2
	strb	r2, [r4]
	strb	r3, [r4, #1]
	bl	__memzero
	cmp	r9, #1
	beq	.L768
	mvn	r3, #0
	mov	r2, #4
	strb	r2, [r4, #2]
	strb	r3, [r4, #4]
	strb	r3, [r4, #5]
	str	r3, [r4, #8]	@ unaligned
.L768:
	add	r0, r4, #12
	sub	r0, r0, r6
	cmp	r10, r0
	blt	.L769
	cmp	r7, #26
	subeq	r3, r0, #1
	strbeq	r3, [r6]
	beq	.L761
	sub	r3, r0, #2
	uxth	r3, r3
	lsr	r2, r3, #8
	strb	r2, [r6]
	strb	r3, [r6, #1]
	b	.L761
	.fnend
	.size	do_mode_sense, .-do_mode_sense
	.align	2
	.global	usb_rmnet_mux_ctrl_open
	.syntax unified
	.arm
	.fpu softvfp
	.type	usb_rmnet_mux_ctrl_open, %function
usb_rmnet_mux_ctrl_open:
	.fnstart
	@ args = 0, pretend = 0, frame = 0
	@ frame_needed = 0, uses_anonymous_args = 0
	movw	r3, #:lower16:.LANCHOR1
	strd	r4, [sp, #-24]!
	.save {r4, r5, r6, r7, r8, lr}
	movt	r3, #:upper16:.LANCHOR1
	strd	r6, [sp, #8]
	mov	r7, r1
	str	r8, [sp, #16]
	str	lr, [sp, #20]
	ldr	r5, [r3, #2320]
	add	r6, r5, #356
	mov	r0, r6
	bl	_raw_spin_lock_irqsave
	ldr	r4, [r5, #344]
	mov	r1, r0
	cmp	r4, #0
	bne	.L780
	mov	r3, #1
	mov	r0, r6
	str	r3, [r5, #344]
	str	r5, [r7, #124]
	bl	_raw_spin_unlock_irqrestore
	mov	r0, r4
.L776:
	ldrd	r4, [sp]
	ldrd	r6, [sp, #8]
	ldr	r8, [sp, #16]
	add	sp, sp, #20
	ldr	pc, [sp], #4
.L780:
	mov	r0, r6
	bl	_raw_spin_unlock_irqrestore
	movw	r1, #:lower16:.LANCHOR2
	movw	r0, #:lower16:.LC13
	movt	r1, #:upper16:.LANCHOR2
	movt	r0, #:upper16:.LC13
	bl	printk
	mvn	r0, #15
	b	.L776
	.fnend
	.size	usb_rmnet_mux_ctrl_open, .-usb_rmnet_mux_ctrl_open
	.align	2
	.syntax unified
	.arm
	.fpu softvfp
	.type	audio_setup, %function
audio_setup:
	.fnstart
	@ args = 0, pretend = 0, frame = 0
	@ frame_needed = 0, uses_anonymous_args = 0
	.save {r4, lr}
	str	r4, [sp, #-8]!
	str	lr, [sp, #4]
	ldr	r3, [r0, #20]
	ldrb	r2, [r1]	@ zero_extendqisi2
	ldr	r0, [r3, #24]
	cmp	r2, #34
	ldr	r3, [r0, #4]
	beq	.L783
	cmp	r2, #162
	bne	.L791
	ldrh	ip, [r1, #2]	@ unaligned
	ldrb	r2, [r1, #1]	@ zero_extendqisi2
	ldr	r1, [r3]
	cmp	ip, #256
	bne	.L791
	sub	r2, r2, #129
	cmp	r2, #3
	bhi	.L791
	mov	r4, #68
	mvn	lr, #83
	mov	ip, #0
	mov	r2, #3
	strb	r4, [r1]
	strb	lr, [r1, #1]
	strb	ip, [r1, #2]
.L786:
	ldrb	lr, [r3, #26]	@ zero_extendqisi2
	movw	ip, #:lower16:audio_control_complete
	str	r2, [r3, #4]
	movt	ip, #:upper16:audio_control_complete
	mov	r1, r3
	mov	r2, #32
	str	ip, [r3, #28]
	bfc	lr, #1, #1
	strb	lr, [r3, #26]
	ldr	r3, [r0]
	ldr	r0, [r3, #4]
	ldr	r3, [r0, #8]
	ldr	r3, [r3, #16]
	blx	r3
	subs	r4, r0, #0
	bge	.L781
	movw	r0, #:lower16:.LC14
	mov	r1, r4
	movt	r0, #:upper16:.LC14
	bl	printk
	b	.L781
.L783:
	ldrb	ip, [r1, #1]	@ zero_extendqisi2
	ldrh	r2, [r1, #6]	@ unaligned
	sub	r1, ip, #1
	cmp	r1, #3
	bls	.L786
.L791:
	mvn	r4, #94
.L781:
	mov	r0, r4
	ldr	r4, [sp]
	add	sp, sp, #4
	ldr	pc, [sp], #4
	.fnend
	.size	audio_setup, .-audio_setup
	.align	2
	.syntax unified
	.arm
	.fpu softvfp
	.type	gsmd_start_rx, %function
gsmd_start_rx:
	.fnstart
	@ args = 0, pretend = 0, frame = 0
	@ frame_needed = 0, uses_anonymous_args = 0
	strd	r4, [sp, #-36]!
	.save {r4, r5, r6, r7, r8, r9, r10, fp, lr}
	subs	r5, r0, #0
	strd	r6, [sp, #8]
	strd	r8, [sp, #16]
	strd	r10, [sp, #24]
	str	lr, [sp, #32]
	.pad #4
	sub	sp, sp, #4
	beq	.L808
	add	r6, r5, #4
	mov	r0, r6
	bl	_raw_spin_lock_irqsave
	ldr	r3, [r5, #68]
	mov	r7, r0
	cmp	r3, #0
	beq	.L796
	add	r9, r5, #12
	mov	fp, #256
	ldr	r8, [r3, #84]
	b	.L797
.L810:
	ldr	r4, [r5, #12]
	cmp	r9, r4
	beq	.L796
	ldrd	r2, [r4]
	str	r3, [r2, #4]
	str	r2, [r3]
	mov	r3, #2048
	str	r3, [r4, #-32]
	mov	r3, #512
	str	fp, [r4]
	str	r3, [r4, #4]
	bl	_raw_spin_unlock_irqrestore
	ldr	r3, [r8, #8]
	mov	r2, #208
	sub	r1, r4, #36
	mov	r0, r8
	ldr	r3, [r3, #16]
	blx	r3
	mov	r10, r0
	mov	r0, r6
	bl	_raw_spin_lock_irqsave
	cmp	r10, #0
	mov	r7, r0
	bne	.L809
.L797:
	ldr	r3, [r5, #72]
	mov	r1, r7
	mov	r0, r6
	ldr	r3, [r3, #8]
	tst	r3, #1
	bne	.L810
.L796:
	mov	r1, r7
	mov	r0, r6
	add	sp, sp, #4
	@ sp needed
	ldrd	r4, [sp]
	ldrd	r6, [sp, #8]
	ldrd	r8, [sp, #16]
	ldrd	r10, [sp, #24]
	ldr	lr, [sp, #32]
	add	sp, sp, #36
	b	_raw_spin_unlock_irqrestore
.L809:
	movw	r0, #:lower16:.LC16
	ldr	r3, [r5]
	mov	r2, r5
	movt	r0, #:upper16:.LC16
	ldr	r1, .L811
	bl	printk
	ldr	r3, [r5, #16]
	str	r4, [r5, #16]
	str	r9, [r4]
	str	r3, [r4, #4]
	str	r4, [r3]
	b	.L796
.L808:
	ldr	r1, .L811
	movw	r0, #:lower16:.LC15
	movt	r0, #:upper16:.LC15
	add	sp, sp, #4
	@ sp needed
	ldrd	r4, [sp]
	ldrd	r6, [sp, #8]
	ldrd	r8, [sp, #16]
	ldrd	r10, [sp, #24]
	ldr	lr, [sp, #32]
	add	sp, sp, #36
	b	printk
.L812:
	.align	2
.L811:
	.word	.LANCHOR2+24
	.fnend
	.size	gsmd_start_rx, .-gsmd_start_rx
	.align	2
	.syntax unified
	.arm
	.fpu softvfp
	.type	gbam_stop, %function
gbam_stop:
	.fnstart
	@ args = 0, pretend = 0, frame = 0
	@ frame_needed = 0, uses_anonymous_args = 0
	cmp	r1, #0
	strd	r4, [sp, #-16]!
	.save {r4, r5, r6, lr}
	mov	r4, r0
	str	r6, [sp, #8]
	str	lr, [sp, #12]
	beq	.L827
	add	r5, r0, #8
	mov	r0, r5
	bl	_raw_spin_lock
	ldr	r3, [r4, #12]
	cmp	r3, #0
	beq	.L828
	ldr	r0, [r3, #76]
	ldr	r1, [r4, #116]
	ldr	r3, [r0, #8]
	ldr	r3, [r3, #20]
	blx	r3
	subs	r2, r0, #0
	bne	.L829
.L818:
	mov	r0, r5
	ldrd	r4, [sp]
	ldr	r6, [sp, #8]
	ldr	lr, [sp, #12]
	add	sp, sp, #16
	b	_raw_spin_unlock
.L827:
	add	r5, r0, #4
	mov	r0, r5
	bl	_raw_spin_lock
	ldr	r3, [r4, #12]
	cmp	r3, #0
	beq	.L830
	ldr	r0, [r3, #80]
	ldr	r1, [r4, #112]
	ldr	r3, [r0, #8]
	ldr	r3, [r3, #20]
	blx	r3
	subs	r2, r0, #0
	beq	.L818
	movw	r0, #:lower16:.LC18
	ldr	r1, .L831
	movt	r0, #:upper16:.LC18
	bl	printk
	b	.L818
.L829:
	movw	r0, #:lower16:.LC18
	ldr	r1, .L831+4
	movt	r0, #:upper16:.LC18
	bl	printk
	b	.L818
.L828:
	mov	r0, r5
	bl	_raw_spin_unlock
	ldr	r1, .L831+4
	movw	r0, #:lower16:.LC17
.L826:
	ldrd	r4, [sp]
	movt	r0, #:upper16:.LC17
	ldr	r6, [sp, #8]
	ldr	lr, [sp, #12]
	add	sp, sp, #16
	b	printk
.L830:
	mov	r0, r5
	bl	_raw_spin_unlock
	movw	r0, #:lower16:.LC17
	ldr	r1, .L831
	b	.L826
.L832:
	.align	2
.L831:
	.word	.LANCHOR2+40
	.word	.LANCHOR2+64
	.fnend
	.size	gbam_stop, .-gbam_stop
	.align	2
	.syntax unified
	.arm
	.fpu softvfp
	.type	ghsic_send_cpkt_tomodem, %function
ghsic_send_cpkt_tomodem:
	.fnstart
	@ args = 0, pretend = 0, frame = 0
	@ frame_needed = 0, uses_anonymous_args = 0
	movw	r3, #:lower16:.LANCHOR1
	strd	r4, [sp, #-24]!
	.save {r4, r5, r6, r7, r8, lr}
	mov	ip, r0
	movt	r3, #:upper16:.LANCHOR1
	strd	r6, [sp, #8]
	mov	r6, r1
	str	r8, [sp, #16]
	str	lr, [sp, #20]
	ldr	r1, [r3, #1036]
	cmp	r0, r1
	bcs	.L840
	mov	r4, r2
	mov	r2, #104
	mla	r3, r2, r0, r3
	ldr	r5, [r3, #1040]
	cmp	r5, #0
	beq	.L841
	mov	r1, #32
	mov	r0, r4
	bl	__kmalloc
	subs	r7, r0, #0
	beq	.L838
	mov	r2, r4
	mov	r1, r6
	bl	memcpy
	ldr	r0, [r5, #84]
	ands	r4, r0, #1
	beq	.L842
	ldr	r3, [r5, #96]
	mov	r4, #0
	add	r3, r3, #1
	str	r3, [r5, #96]
.L833:
	mov	r0, r4
	ldrd	r4, [sp]
	ldrd	r6, [sp, #8]
	ldr	r8, [sp, #16]
	add	sp, sp, #20
	ldr	pc, [sp], #4
.L842:
	ldr	r3, [r5, #104]
	mov	r0, r7
	add	r3, r3, #1
	str	r3, [r5, #104]
	bl	kfree
	b	.L833
.L838:
	mvn	r4, #11
	b	.L833
.L841:
	movw	r0, #:lower16:.LC15
	ldr	r1, .L843
	mvn	r4, #18
	movt	r0, #:upper16:.LC15
	bl	printk
	b	.L833
.L840:
	movw	r0, #:lower16:.LC19
	mov	r2, ip
	ldr	r1, .L843
	movt	r0, #:upper16:.LC19
	mvn	r4, #18
	bl	printk
	b	.L833
.L844:
	.align	2
.L843:
	.word	.LANCHOR2+88
	.fnend
	.size	ghsic_send_cpkt_tomodem, .-ghsic_send_cpkt_tomodem
	.align	2
	.syntax unified
	.arm
	.fpu softvfp
	.type	ecm_qc_setup, %function
ecm_qc_setup:
	.fnstart
	@ args = 0, pretend = 0, frame = 0
	@ frame_needed = 0, uses_anonymous_args = 0
	strd	r4, [sp, #-12]!
	.save {r4, r5, lr}
	movw	r3, #17185
	str	lr, [sp, #8]
	ldr	ip, [r0, #20]
	.pad #12
	sub	sp, sp, #12
	ldrh	r2, [r1]	@ unaligned
	ldrh	r4, [r1, #4]	@ unaligned
	ldrh	r5, [r1, #2]	@ unaligned
	ldr	lr, [ip, #24]
	cmp	r2, r3
	ldrh	ip, [r1, #6]	@ unaligned
	ldr	r3, [lr, #4]
	bne	.L850
	cmp	ip, #0
	bne	.L850
	ldrb	r2, [r0, #112]	@ zero_extendqisi2
	cmp	r2, r4
	bne	.L850
	strh	r5, [r0, #90]	@ movhi
	ldrb	r0, [r3, #26]	@ zero_extendqisi2
	mov	r4, r1
	str	ip, [r3, #4]
	mov	r1, r3
	mov	r2, #32
	bfi	r0, ip, #1, #1
	strb	r0, [r3, #26]
	ldr	r3, [lr]
	ldr	r0, [r3, #4]
	ldr	r3, [r0, #8]
	ldr	r3, [r3, #16]
	blx	r3
	subs	r5, r0, #0
	blt	.L853
.L845:
	mov	r0, r5
	add	sp, sp, #12
	@ sp needed
	ldrd	r4, [sp]
	add	sp, sp, #8
	ldr	pc, [sp], #4
.L850:
	mvn	r5, #94
	b	.L845
.L853:
	movw	r0, #:lower16:.LC20
	ldrb	r3, [r4, #1]	@ zero_extendqisi2
	str	r5, [sp]
	ldr	r1, .L854
	movt	r0, #:upper16:.LC20
	ldrb	r2, [r4]	@ zero_extendqisi2
	bl	printk
	b	.L845
.L855:
	.align	2
.L854:
	.word	.LANCHOR2+112
	.fnend
	.size	ecm_qc_setup, .-ecm_qc_setup
	.align	2
	.syntax unified
	.arm
	.fpu softvfp
	.type	mbim_ep0out_complete, %function
mbim_ep0out_complete:
	.fnstart
	@ args = 0, pretend = 0, frame = 0
	@ frame_needed = 0, uses_anonymous_args = 0
	strd	r4, [sp, #-16]!
	.save {r4, r5, r6, lr}
	mov	r3, #0
	mov	r5, r0
	str	r6, [sp, #8]
	str	lr, [sp, #12]
	ldr	r4, [r1, #32]
	ldr	r2, [r1, #44]
	str	r3, [r1, #32]
	cmp	r2, r3
	bne	.L857
	ldr	r0, [r1, #4]
	ldr	r3, [r1, #48]
	cmp	r3, r0
	bne	.L857
	cmp	r3, #4
	beq	.L869
	cmp	r3, #8
	bne	.L863
	ldr	r1, [r1]
	ldr	r2, [r1]	@ unaligned
	cmp	r2, #2048
	bcc	.L864
	movw	r3, #:lower16:.LANCHOR0
	movt	r3, #:upper16:.LANCHOR0
	ldr	r3, [r3, #140]
	cmp	r3, r2
	bcc	.L864
	ldrh	r3, [r1, #4]	@ unaligned
	strh	r3, [r4, #220]	@ movhi
.L862:
	str	r2, [r4, #216]
	ldrd	r4, [sp]
	ldr	r6, [sp, #8]
	add	sp, sp, #12
	ldr	pc, [sp], #4
.L869:
	ldr	r3, [r1]
	ldr	r2, [r3]	@ unaligned
	cmp	r2, #2048
	bcc	.L864
	movw	r3, #:lower16:.LANCHOR0
	movt	r3, #:upper16:.LANCHOR0
	ldr	r3, [r3, #140]
	cmp	r3, r2
	bcs	.L862
.L864:
	movw	r0, #:lower16:.LC22
	ldr	r1, .L870
	movt	r0, #:upper16:.LC22
	bl	printk
.L859:
	ldr	r3, [r5, #8]
	mov	r0, r5
	mov	r1, #1
	ldr	r3, [r3, #24]
	blx	r3
	movw	r0, #:lower16:.LC24
	mov	r2, r4
	ldr	r1, .L870
	ldrd	r4, [sp]
	movt	r0, #:upper16:.LC24
	ldr	r6, [sp, #8]
	ldr	lr, [sp, #12]
	add	sp, sp, #16
	b	printk
.L857:
	movw	r0, #:lower16:.LC21
	ldr	r1, .L870
	movt	r0, #:upper16:.LC21
	bl	printk
	b	.L859
.L863:
	movw	r0, #:lower16:.LC23
	ldr	r1, .L870
	movt	r0, #:upper16:.LC23
	bl	printk
	b	.L859
.L871:
	.align	2
.L870:
	.word	.LANCHOR2+128
	.fnend
	.size	mbim_ep0out_complete, .-mbim_ep0out_complete
	.align	2
	.syntax unified
	.arm
	.fpu softvfp
	.type	bam_data_stop, %function
bam_data_stop:
	.fnstart
	@ args = 0, pretend = 0, frame = 0
	@ frame_needed = 0, uses_anonymous_args = 0
	cmp	r1, #0
	.save {r4, lr}
	str	r4, [sp, #-8]!
	str	lr, [sp, #4]
	ldr	r3, [r0, #4]
	beq	.L888
	cmp	r3, #0
	beq	.L872
	ldr	r3, [r3, #8]
	ldr	r1, [r0, #40]
	ldr	r2, [r3, #8]
	mov	r0, r3
	ldr	r3, [r2, #20]
	blx	r3
	subs	r3, r0, #0
	bne	.L889
.L872:
	ldr	r4, [sp]
	add	sp, sp, #4
	ldr	pc, [sp], #4
.L888:
	cmp	r3, #0
	beq	.L872
	ldr	r3, [r3, #12]
	ldr	r1, [r0, #36]
	ldr	r2, [r3, #8]
	mov	r0, r3
	ldr	r3, [r2, #20]
	blx	r3
	subs	r3, r0, #0
	ldrne	r2, .L890
	beq	.L872
.L887:
	movw	r0, #:lower16:.LC25
	ldr	r4, [sp]
	mov	r1, r2
	ldr	lr, [sp, #4]
	movt	r0, #:upper16:.LC25
	add	sp, sp, #8
	b	printk
.L889:
	ldr	r2, .L890+4
	b	.L887
.L891:
	.align	2
.L890:
	.word	.LANCHOR2+152
	.word	.LANCHOR2+180
	.fnend
	.size	bam_data_stop, .-bam_data_stop
	.align	2
	.syntax unified
	.arm
	.fpu softvfp
	.type	rndis_qc_response_complete, %function
rndis_qc_response_complete:
	.fnstart
	@ args = 0, pretend = 0, frame = 0
	@ frame_needed = 0, uses_anonymous_args = 0
	strd	r4, [sp, #-16]!
	.save {r4, r5, r6, lr}
	str	r6, [sp, #8]
	str	lr, [sp, #12]
	ldr	r5, [r1, #32]
	.pad #8
	sub	sp, sp, #8
	ldr	r3, [r1, #44]
	ldr	r2, [r5, #20]
	cmp	r2, #0
	beq	.L893
	ldr	r2, [r2, #24]
	cmp	r2, #0
	beq	.L893
	cmn	r3, #104
	beq	.L896
	cmp	r3, #0
	mov	r6, r0
	mov	r4, r1
	bne	.L921
.L897:
	ldr	r3, [r5, #148]
	cmp	r3, r6
	beq	.L922
.L892:
	add	sp, sp, #8
	@ sp needed
	ldrd	r4, [sp]
	ldr	r6, [sp, #8]
	add	sp, sp, #12
	ldr	pc, [sp], #4
.L921:
	cmn	r3, #108
	beq	.L896
	ldr	r1, [r1, #4]
	movw	r0, #:lower16:.LC27
	ldr	ip, [r4, #48]
	movt	r0, #:upper16:.LC27
	ldr	r2, [r6, #4]
	str	ip, [sp]
	str	r1, [sp, #4]
	ldr	r1, .L923
	bl	printk
	b	.L897
.L896:
	mov	r3, #0
	str	r3, [r5, #156]
	b	.L892
.L922:
	add	r6, r5, #156
	.syntax divided
@ 98 "/home/xawlw/kernel/arg/arch/arm/include/asm/atomic.h" 1
	dmb
@ 0 "" 2
@ 100 "/home/xawlw/kernel/arg/arch/arm/include/asm/atomic.h" 1
	@ atomic_sub_return
1:	ldrex	r3, [r6]
	sub	r3, r3, #1
	strex	r2, r3, [r6]
	teq	r2, #0
	bne	1b
@ 0 "" 2
@ 110 "/home/xawlw/kernel/arg/arch/arm/include/asm/atomic.h" 1
	dmb
@ 0 "" 2
	.arm
	.syntax unified
	cmp	r3, #0
	beq	.L892
	ldr	r0, [r5, #148]
	mov	r1, r4
	mov	r2, #32
	ldr	r3, [r0, #8]
	ldr	r3, [r3, #16]
	blx	r3
	cmp	r0, #0
	beq	.L892
	.syntax divided
@ 82 "/home/xawlw/kernel/arg/arch/arm/include/asm/atomic.h" 1
	@ atomic_sub
1:	ldrex	r3, [r6]
	sub	r3, r3, #1
	strex	r2, r3, [r6]
	teq	r2, #0
	bne	1b
@ 0 "" 2
	.arm
	.syntax unified
	b	.L892
.L893:
	ldr	r2, .L923
	movw	r0, #:lower16:.LC26
	movt	r0, #:upper16:.LC26
	mov	r1, r2
	add	sp, sp, #8
	@ sp needed
	ldrd	r4, [sp]
	ldr	r6, [sp, #8]
	ldr	lr, [sp, #12]
	add	sp, sp, #16
	b	printk
.L924:
	.align	2
.L923:
	.word	.LANCHOR2+208
	.fnend
	.size	rndis_qc_response_complete, .-rndis_qc_response_complete
	.align	2
	.syntax unified
	.arm
	.fpu softvfp
	.type	rndis_qc_response_available, %function
rndis_qc_response_available:
	.fnstart
	@ args = 0, pretend = 0, frame = 0
	@ frame_needed = 0, uses_anonymous_args = 0
	strd	r4, [sp, #-16]!
	.save {r4, r5, r6, lr}
	add	r5, r0, #156
	str	r6, [sp, #8]
	str	lr, [sp, #12]
	ldr	r1, [r0, #152]
	ldr	ip, [r1]
	.syntax divided
@ 60 "/home/xawlw/kernel/arg/arch/arm/include/asm/atomic.h" 1
	dmb
@ 0 "" 2
@ 62 "/home/xawlw/kernel/arg/arch/arm/include/asm/atomic.h" 1
	@ atomic_add_return
1:	ldrex	r3, [r5]
	add	r3, r3, #1
	strex	r2, r3, [r5]
	teq	r2, #0
	bne	1b
@ 0 "" 2
@ 72 "/home/xawlw/kernel/arg/arch/arm/include/asm/atomic.h" 1
	dmb
@ 0 "" 2
	.arm
	.syntax unified
	cmp	r3, #1
	bne	.L925
	mov	r4, r0
	mov	r0, #0
	str	r3, [ip]
	mov	r2, #32
	str	r0, [ip, #4]
	ldr	r0, [r4, #148]
	ldr	r3, [r0, #8]
	ldr	r3, [r3, #16]
	blx	r3
	subs	r2, r0, #0
	bne	.L933
.L925:
	ldrd	r4, [sp]
	ldr	r6, [sp, #8]
	add	sp, sp, #12
	ldr	pc, [sp], #4
.L933:
	.syntax divided
@ 82 "/home/xawlw/kernel/arg/arch/arm/include/asm/atomic.h" 1
	@ atomic_sub
1:	ldrex	r3, [r5]
	sub	r3, r3, #1
	strex	r1, r3, [r5]
	teq	r1, #0
	bne	1b
@ 0 "" 2
	.arm
	.syntax unified
	movw	r0, #:lower16:.LC28
	ldrd	r4, [sp]
	ldr	r6, [sp, #8]
	movt	r0, #:upper16:.LC28
	ldr	lr, [sp, #12]
	add	sp, sp, #16
	ldr	r1, .L934
	b	printk
.L935:
	.align	2
.L934:
	.word	.LANCHOR2+236
	.fnend
	.size	rndis_qc_response_available, .-rndis_qc_response_available
	.align	2
	.syntax unified
	.arm
	.fpu softvfp
	.type	f_audio_buffer_alloc, %function
f_audio_buffer_alloc:
	.fnstart
	@ args = 0, pretend = 0, frame = 0
	@ frame_needed = 0, uses_anonymous_args = 0
	movw	r3, #:lower16:kmalloc_caches
	strd	r4, [sp, #-16]!
	.save {r4, r5, r6, lr}
	mov	r5, r0
	movt	r3, #:upper16:kmalloc_caches
	str	r6, [sp, #8]
	str	lr, [sp, #12]
	ldr	r0, [r3, #24]
	cmp	r0, #0
	beq	.L939
	mov	r2, #16
	movw	r1, #32800
	bl	kmem_cache_alloc_trace
	subs	r4, r0, #0
	beq	.L941
.L937:
	mov	r0, r5
	movw	r1, #32800
	bl	__kmalloc
	cmp	r0, #0
	str	r0, [r4]
	beq	.L942
.L936:
	mov	r0, r4
	ldrd	r4, [sp]
	ldr	r6, [sp, #8]
	add	sp, sp, #12
	ldr	pc, [sp], #4
.L939:
	mov	r4, #16
	b	.L937
.L942:
	movw	r0, #:lower16:.LC30
	ldr	r1, .L943
	movt	r0, #:upper16:.LC30
	bl	printk
	mov	r0, r4
	mvn	r4, #11
	bl	kfree
	b	.L936
.L941:
	movw	r0, #:lower16:.LC29
	ldr	r1, .L943
	mvn	r4, #11
	movt	r0, #:upper16:.LC29
	bl	printk
	b	.L936
.L944:
	.align	2
.L943:
	.word	.LANCHOR2+264
	.fnend
	.size	f_audio_buffer_alloc, .-f_audio_buffer_alloc
	.align	2
	.syntax unified
	.arm
	.fpu softvfp
	.type	f_audio_setup, %function
f_audio_setup:
	.fnstart
	@ args = 0, pretend = 0, frame = 8
	@ frame_needed = 0, uses_anonymous_args = 0
	strd	r4, [sp, #-24]!
	.save {r4, r5, r6, r7, r8, lr}
	strd	r6, [sp, #8]
	mov	r7, r0
	str	r8, [sp, #16]
	str	lr, [sp, #20]
	ldr	r3, [r0, #20]
	.pad #24
	sub	sp, sp, #24
	ldrb	r2, [r1]	@ zero_extendqisi2
	ldrh	ip, [r1, #4]	@ unaligned
	ldrh	lr, [r1, #2]	@ unaligned
	ldr	r6, [r3, #24]
	cmp	r2, #34
	ldrh	r5, [r1, #6]	@ unaligned
	ldrb	r3, [r1, #1]	@ zero_extendqisi2
	ldr	r4, [r6, #4]
	beq	.L947
	bls	.L1004
	cmp	r2, #161
	beq	.L950
	cmp	r2, #162
	bne	.L946
	ldr	r2, [r7, #252]!
	and	ip, ip, #127
	lsr	lr, lr, #8
	cmp	r7, r2
	beq	.L967
	ldrb	r1, [r2, #16]	@ zero_extendqisi2
	cmp	r1, ip
	bne	.L987
.L979:
	ldr	ip, [r2, #8]!
	cmp	r2, ip
	beq	.L967
	ldrb	r1, [ip, #12]	@ zero_extendqisi2
	cmp	r1, lr
	beq	.L982
.L986:
	ldr	ip, [ip]
	cmp	r2, ip
	beq	.L967
	ldrb	r1, [ip, #12]	@ zero_extendqisi2
	cmp	lr, r1
	bne	.L986
.L982:
	and	r3, r3, #15
	sub	r2, r3, #1
	cmp	r2, #3
	bhi	.L967
	add	r3, r3, #4
	add	r1, sp, #24
	ldr	r0, [r4]
	ldr	r3, [ip, r3, lsl #2]
	mov	r2, r5
	str	r3, [r1, #-4]!
	bl	memcpy
	b	.L959
.L950:
	ldr	r2, [r0, #244]!
	mvn	r1, #94
	lsr	ip, ip, #8
	str	r1, [sp, #20]
	cmp	r2, r0
	beq	.L960
	ldrb	r1, [r2, #16]	@ zero_extendqisi2
	cmp	r1, ip
	bne	.L962
	b	.L961
.L965:
	ldrb	r1, [r2, #16]	@ zero_extendqisi2
	cmp	ip, r1
	beq	.L961
.L962:
	ldr	r2, [r2]
	cmp	r2, r0
	bne	.L965
.L960:
	movw	r3, #:lower16:f_audio_complete
	mov	r2, r5
	ldr	r0, [r4]
	movt	r3, #:upper16:f_audio_complete
	add	r1, sp, #20
	str	r3, [r4, #28]
	str	r7, [r4, #32]
	bl	memcpy
.L959:
	ldrb	r3, [r4, #26]	@ zero_extendqisi2
	str	r5, [r4, #4]
	mov	r1, r4
	mov	r2, #32
	orr	r3, r3, #2
	strb	r3, [r4, #26]
	ldr	r3, [r6]
	ldr	r0, [r3, #4]
	ldr	r3, [r0, #8]
	ldr	r3, [r3, #16]
	blx	r3
	subs	r4, r0, #0
	blt	.L1005
.L945:
	mov	r0, r4
	add	sp, sp, #24
	@ sp needed
	ldrd	r4, [sp]
	ldrd	r6, [sp, #8]
	ldr	r8, [sp, #16]
	add	sp, sp, #20
	ldr	pc, [sp], #4
.L980:
	ldrb	r1, [r2, #16]	@ zero_extendqisi2
	cmp	ip, r1
	beq	.L979
.L987:
	ldr	r2, [r2]
	cmp	r7, r2
	bne	.L980
	b	.L967
.L1004:
	cmp	r2, #33
	bne	.L946
	mov	r8, r0
	lsr	ip, ip, #8
	ldr	r2, [r8, #244]!
	and	r3, r3, #15
	cmp	r2, r8
	beq	.L952
	ldrb	r1, [r2, #16]	@ zero_extendqisi2
	cmp	r1, ip
	bne	.L954
	b	.L953
.L958:
	ldrb	r0, [r2, #16]	@ zero_extendqisi2
	cmp	ip, r0
	beq	.L953
.L954:
	ldr	r2, [r2]
	cmp	r2, r8
	bne	.L958
.L952:
	movw	r2, #:lower16:f_audio_complete
	strb	r3, [r7, #260]
	movt	r2, #:upper16:f_audio_complete
	str	r2, [r4, #28]
	str	r7, [r4, #32]
	b	.L959
.L947:
	mov	r1, r0
	and	ip, ip, #127
	ldr	r2, [r1, #252]!
	lsr	lr, lr, #8
	cmp	r1, r2
	beq	.L967
	ldrb	r0, [r2, #16]	@ zero_extendqisi2
	cmp	r0, ip
	bne	.L976
.L968:
	ldr	r0, [r2, #8]!
	cmp	r0, r2
	beq	.L967
	ldrb	r1, [r0, #12]	@ zero_extendqisi2
	cmp	r1, lr
	beq	.L971
.L975:
	ldr	r0, [r0]
	cmp	r0, r2
	beq	.L967
	ldrb	r1, [r0, #12]	@ zero_extendqisi2
	cmp	lr, r1
	bne	.L975
.L971:
	ands	r3, r3, #15
	beq	.L973
	cmp	r3, #4
	bls	.L974
	cmp	r3, #5
	bne	.L973
.L967:
	movw	r0, #:lower16:.LC34
	ldr	r1, .L1006
	mvn	r4, #94
	movt	r0, #:upper16:.LC34
	bl	printk
	b	.L945
.L969:
	ldrb	r0, [r2, #16]	@ zero_extendqisi2
	cmp	ip, r0
	beq	.L968
.L976:
	ldr	r2, [r2]
	cmp	r1, r2
	bne	.L969
	b	.L967
.L961:
	ldr	r0, [r2, #8]!
	cmp	r0, r2
	beq	.L960
	lsr	lr, lr, #8
	b	.L964
.L963:
	ldr	r0, [r0]
	cmp	r0, r2
	beq	.L960
.L964:
	ldrb	r1, [r0, #12]	@ zero_extendqisi2
	cmp	r1, lr
	bne	.L963
	ldr	r8, [r0, #40]
	cmp	r8, #0
	beq	.L963
	and	r1, r3, #15
	blx	r8
	str	r0, [sp, #20]
	b	.L960
.L953:
	ldr	r0, [r2, #8]!
	cmp	r0, r2
	beq	.L952
	ldrb	r1, [r0, #12]	@ zero_extendqisi2
	lsr	lr, lr, #8
	cmp	r1, lr
	bne	.L956
	b	.L955
.L957:
	ldrb	ip, [r0, #12]	@ zero_extendqisi2
	cmp	lr, ip
	beq	.L955
.L956:
	ldr	r0, [r0]
	cmp	r0, r2
	bne	.L957
	b	.L952
.L974:
	movw	r2, #:lower16:audio_set_endpoint_complete
	strb	r3, [r7, #260]
	movt	r2, #:upper16:audio_set_endpoint_complete
	str	r0, [r7, #264]
	str	r2, [r4, #28]
	str	r7, [r4, #32]
	b	.L959
.L955:
	str	r0, [r7, #264]
	b	.L952
.L946:
	movw	r0, #:lower16:.LC32
	ldr	r1, .L1006
	str	lr, [sp]
	str	ip, [sp, #4]
	movt	r0, #:upper16:.LC32
	str	r5, [sp, #8]
	bl	printk
	b	.L967
.L1005:
	movw	r0, #:lower16:.LC33
	mov	r2, r4
	ldr	r1, .L1006
	movt	r0, #:upper16:.LC33
	bl	printk
	b	.L945
.L973:
	movw	r0, #:lower16:.LC31
	ldr	r1, .L1006+4
	movt	r0, #:upper16:.LC31
	bl	printk
	b	.L967
.L1007:
	.align	2
.L1006:
	.word	.LANCHOR2+312
	.word	.LANCHOR2+288
	.fnend
	.size	f_audio_setup, .-f_audio_setup
	.align	2
	.syntax unified
	.arm
	.fpu softvfp
	.type	android_enable_function, %function
android_enable_function:
	.fnstart
	@ args = 0, pretend = 0, frame = 8
	@ frame_needed = 0, uses_anonymous_args = 0
	strd	r4, [sp, #-36]!
	.save {r4, r5, r6, r7, r8, r9, r10, fp, lr}
	strd	r6, [sp, #8]
	mov	r7, r1
	strd	r8, [sp, #16]
	movw	r9, #:lower16:.LC35
	strd	r10, [sp, #24]
	mov	r10, r2
	mov	fp, r0
	str	lr, [sp, #32]
	.pad #12
	sub	sp, sp, #12
	ldr	r6, [r0, #4]
	ldr	r2, [r0, #8]
	movt	r9, #:upper16:.LC35
	ldr	r3, [r0, #48]
	sub	r6, r6, #4
	str	r3, [sp]
	ldr	r3, [r2]
	str	r3, [sp, #4]
.L1009:
	ldr	r5, [r6, #4]!
	mov	r0, r10
	cmp	r5, #0
	beq	.L1020
	ldr	r4, [r5]
	mov	r1, r4
	bl	strcmp
	subs	r8, r0, #0
	bne	.L1009
	ldr	r1, [r5, #20]
	cmp	r1, fp
	cmpne	r1, #0
	bne	.L1021
	movw	r2, #:lower16:kmalloc_caches
	movt	r2, #:upper16:kmalloc_caches
	ldr	r0, [r2, #24]
	cmp	r0, #0
	beq	.L1017
	mov	r2, #12
	movw	r1, #32976
	bl	kmem_cache_alloc_trace
	cmp	r0, #0
	beq	.L1022
.L1012:
	mov	r2, r0
	str	fp, [r5, #20]
	add	r1, r7, #112
	str	r5, [r2], #4
	ldr	r3, [r7, #116]
	str	r2, [r7, #116]
	stmib	r0, {r1, r3}
	str	r2, [r3]
	ldr	r2, [sp]
	ldr	r6, [r5]
	ldr	r3, [r2, #44]
	cmp	r3, #0
	ble	.L1008
	add	r3, r3, r3, lsl #2
	add	r4, r2, #11
	add	r5, r4, r3, lsl #1
	b	.L1015
.L1014:
	cmp	r5, r4
	beq	.L1008
.L1015:
	mov	r1, r4
	mov	r0, r6
	bl	strcmp
	cmp	r0, #0
	add	r4, r4, #10
	bne	.L1014
	ldr	r2, [sp, #4]
	mov	r3, #1
	mov	r8, r0
	strb	r3, [r2, #386]
.L1008:
	mov	r0, r8
	add	sp, sp, #12
	@ sp needed
	ldrd	r4, [sp]
	ldrd	r6, [sp, #8]
	ldrd	r8, [sp, #16]
	ldrd	r10, [sp, #24]
	add	sp, sp, #32
	ldr	pc, [sp], #4
.L1017:
	mov	r0, #16
	b	.L1012
.L1020:
	mvn	r8, #21
	b	.L1008
.L1021:
	mov	r2, r4
	ldr	r1, .L1023
	mov	r0, r9
	bl	printk
	b	.L1009
.L1022:
	movw	r0, #:lower16:.LC36
	ldr	r1, .L1023
	mvn	r8, #11
	movt	r0, #:upper16:.LC36
	bl	printk
	b	.L1008
.L1024:
	.align	2
.L1023:
	.word	.LANCHOR2+328
	.fnend
	.size	android_enable_function, .-android_enable_function
	.align	2
	.syntax unified
	.arm
	.fpu softvfp
	.type	acc_complete_set_string, %function
acc_complete_set_string:
	.fnstart
	@ args = 0, pretend = 0, frame = 0
	@ frame_needed = 0, uses_anonymous_args = 0
	strd	r4, [sp, #-24]!
	.save {r4, r5, r6, r7, r8, lr}
	strd	r6, [sp, #8]
	str	r8, [sp, #16]
	str	lr, [sp, #20]
	ldr	r3, [r1, #44]
	ldr	r0, [r0]
	ldr	r6, [r1, #48]
	cmp	r3, #0
	movwne	r0, #:lower16:.LC37
	movne	r1, r3
	movtne	r0, #:upper16:.LC37
	bne	.L1040
	ldr	r3, [r0, #1632]
	cmp	r3, #5
	ldrls	pc, [pc, r3, asl #2]
	b	.L1027
.L1029:
	.word	.L1028
	.word	.L1030
	.word	.L1031
	.word	.L1032
	.word	.L1033
	.word	.L1034
.L1034:
	add	r7, r0, #1360
	add	r7, r7, #13
.L1035:
	cmp	r7, #0
	beq	.L1027
	add	r4, r0, #80
	mov	r5, r1
	mov	r0, r4
	bl	_raw_spin_lock_irqsave
	cmp	r6, #255
	mov	r8, r0
	ldr	r1, [r5]
	movge	r6, #255
	mov	r0, r7
	mov	r2, r6
	bl	memcpy
	mov	r3, #0
	mov	r1, r8
	mov	r0, r4
	strb	r3, [r7, r6]
	ldrd	r4, [sp]
	ldrd	r6, [sp, #8]
	ldr	r8, [sp, #16]
	ldr	lr, [sp, #20]
	add	sp, sp, #24
	b	_raw_spin_unlock_irqrestore
.L1028:
	add	r7, r0, #93
	b	.L1035
.L1030:
	add	r7, r0, #348
	add	r7, r7, #1
	b	.L1035
.L1031:
	add	r7, r0, #604
	add	r7, r7, #1
	b	.L1035
.L1032:
	add	r7, r0, #860
	add	r7, r7, #1
	b	.L1035
.L1033:
	add	r7, r0, #1104
	add	r7, r7, #13
	b	.L1035
.L1027:
	movw	r0, #:lower16:.LC38
	mov	r1, r3
	movt	r0, #:upper16:.LC38
.L1040:
	ldrd	r4, [sp]
	ldrd	r6, [sp, #8]
	ldr	r8, [sp, #16]
	ldr	lr, [sp, #20]
	add	sp, sp, #24
	b	printk
	.fnend
	.size	acc_complete_set_string, .-acc_complete_set_string
	.align	2
	.syntax unified
	.arm
	.fpu softvfp
	.type	acc_release, %function
acc_release:
	.fnstart
	@ args = 0, pretend = 0, frame = 0
	@ frame_needed = 0, uses_anonymous_args = 0
	.save {r4, lr}
	str	r4, [sp, #-8]!
	movw	r0, #:lower16:.LC39
	movw	r4, #:lower16:.LANCHOR1
	movt	r4, #:upper16:.LANCHOR1
	movt	r0, #:upper16:.LC39
	str	lr, [sp, #4]
	bl	printk
	ldr	r3, [r4, #2324]
	add	r3, r3, #1632
	add	r3, r3, #12
	.syntax divided
@ 37 "/home/xawlw/kernel/arg/arch/arm/include/asm/cmpxchg.h" 1
	dmb
@ 0 "" 2
	.arm
	.syntax unified
	mov	r2, #0
	.syntax divided
@ 52 "/home/xawlw/kernel/arg/arch/arm/include/asm/cmpxchg.h" 1
	@	__xchg4
1:	ldrex	r1, [r3]
	strex	r0, r2, [r3]
	teq	r0, #0
	bne	1b
@ 0 "" 2
@ 98 "/home/xawlw/kernel/arg/arch/arm/include/asm/cmpxchg.h" 1
	dmb
@ 0 "" 2
	.arm
	.syntax unified
	cmp	r1, r2
	beq	.L1044
.L1042:
	ldr	r3, [r4, #2324]
	mov	r0, #0
	ldrb	r2, [r3, #92]	@ zero_extendqisi2
	bfc	r2, #1, #1
	strb	r2, [r3, #92]
	ldr	r4, [sp]
	add	sp, sp, #4
	ldr	pc, [sp], #4
.L1044:
	movw	r0, #:lower16:.LC40
	movw	r1, #799
	movt	r0, #:upper16:.LC40
	bl	warn_slowpath_null
	b	.L1042
	.fnend
	.size	acc_release, .-acc_release
	.align	2
	.syntax unified
	.arm
	.fpu softvfp
	.type	acc_open, %function
acc_open:
	.fnstart
	@ args = 0, pretend = 0, frame = 0
	@ frame_needed = 0, uses_anonymous_args = 0
	movw	r0, #:lower16:.LC41
	.save {r4, lr}
	str	r4, [sp, #-8]!
	mov	r4, r1
	movt	r0, #:upper16:.LC41
	str	lr, [sp, #4]
	bl	printk
	movw	r2, #:lower16:.LANCHOR1
	movt	r2, #:upper16:.LANCHOR1
	ldr	r3, [r2, #2324]
	add	r3, r3, #1632
	add	r3, r3, #12
	.syntax divided
@ 37 "/home/xawlw/kernel/arg/arch/arm/include/asm/cmpxchg.h" 1
	dmb
@ 0 "" 2
	.arm
	.syntax unified
	mov	r0, #1
	.syntax divided
@ 52 "/home/xawlw/kernel/arg/arch/arm/include/asm/cmpxchg.h" 1
	@	__xchg4
1:	ldrex	ip, [r3]
	strex	r1, r0, [r3]
	teq	r1, #0
	bne	1b
@ 0 "" 2
@ 98 "/home/xawlw/kernel/arg/arch/arm/include/asm/cmpxchg.h" 1
	dmb
@ 0 "" 2
	.arm
	.syntax unified
	cmp	ip, #0
	bne	.L1047
	ldr	r3, [r2, #2324]
	mov	r0, ip
	ldrb	r2, [r3, #92]	@ zero_extendqisi2
	bfi	r2, ip, #1, #1
	strb	r2, [r3, #92]
	str	r3, [r4, #124]
.L1045:
	ldr	r4, [sp]
	add	sp, sp, #4
	ldr	pc, [sp], #4
.L1047:
	mvn	r0, #15
	b	.L1045
	.fnend
	.size	acc_open, .-acc_open
	.align	2
	.syntax unified
	.arm
	.fpu softvfp
	.type	rndis_qc_release_dev, %function
rndis_qc_release_dev:
	.fnstart
	@ args = 0, pretend = 0, frame = 0
	@ frame_needed = 0, uses_anonymous_args = 0
	movw	r0, #:lower16:.LC42
	strd	r4, [sp, #-16]!
	.save {r4, r5, r6, lr}
	ldr	r1, .L1054
	movw	r4, #:lower16:.LANCHOR1
	movt	r0, #:upper16:.LC42
	str	r6, [sp, #8]
	str	lr, [sp, #12]
	movt	r4, #:upper16:.LANCHOR1
	bl	printk
	ldr	r0, .L1054+4
	bl	_raw_spin_lock_irqsave
	ldr	r3, [r4, #2332]
	mov	r5, r0
	cmp	r3, #0
	beq	.L1053
	add	r2, r3, #144
	.syntax divided
@ 82 "/home/xawlw/kernel/arg/arch/arm/include/asm/atomic.h" 1
	@ atomic_sub
1:	ldrex	r1, [r2]
	sub	r1, r1, #1
	strex	r0, r1, [r2]
	teq	r0, #0
	bne	1b
@ 0 "" 2
	.arm
	.syntax unified
	ldr	r0, .L1054+4
	mov	r1, r5
	bl	_raw_spin_unlock_irqrestore
	mov	r0, #0
.L1049:
	ldrd	r4, [sp]
	ldr	r6, [sp, #8]
	add	sp, sp, #12
	ldr	pc, [sp], #4
.L1053:
	movw	r0, #:lower16:.LC43
	ldr	r1, .L1054
	movt	r0, #:upper16:.LC43
	bl	printk
	ldr	r0, .L1054+4
	mov	r1, r5
	bl	_raw_spin_unlock_irqrestore
	mvn	r0, #18
	b	.L1049
.L1055:
	.align	2
.L1054:
	.word	.LANCHOR2+352
	.word	.LANCHOR1+2328
	.fnend
	.size	rndis_qc_release_dev, .-rndis_qc_release_dev
	.align	2
	.syntax unified
	.arm
	.fpu softvfp
	.type	mtp_release, %function
mtp_release:
	.fnstart
	@ args = 0, pretend = 0, frame = 0
	@ frame_needed = 0, uses_anonymous_args = 0
	movw	r0, #:lower16:.LC44
	.save {r4, lr}
	str	r4, [sp, #-8]!
	movt	r0, #:upper16:.LC44
	str	lr, [sp, #4]
	bl	printk
	movw	r3, #:lower16:.LANCHOR1
	movt	r3, #:upper16:.LANCHOR1
	ldr	r3, [r3, #2336]
	add	r2, r3, #100
	.syntax divided
@ 82 "/home/xawlw/kernel/arg/arch/arm/include/asm/atomic.h" 1
	@ atomic_sub
1:	ldrex	r1, [r2]
	sub	r1, r1, #1
	strex	r0, r1, [r2]
	teq	r0, #0
	bne	1b
@ 0 "" 2
	.arm
	.syntax unified
	ldr	r4, [sp]
	add	sp, sp, #4
	mov	r0, #0
	ldr	pc, [sp], #4
	.fnend
	.size	mtp_release, .-mtp_release
	.align	2
	.syntax unified
	.arm
	.fpu softvfp
	.type	mtp_open, %function
mtp_open:
	.fnstart
	@ args = 0, pretend = 0, frame = 0
	@ frame_needed = 0, uses_anonymous_args = 0
	movw	r0, #:lower16:.LC45
	.save {r4, lr}
	str	r4, [sp, #-8]!
	mov	r4, r1
	movt	r0, #:upper16:.LC45
	str	lr, [sp, #4]
	bl	printk
	movw	r2, #:lower16:.LANCHOR1
	movt	r2, #:upper16:.LANCHOR1
	ldr	r3, [r2, #2336]
	add	r0, r3, #100
	.syntax divided
@ 60 "/home/xawlw/kernel/arg/arch/arm/include/asm/atomic.h" 1
	dmb
@ 0 "" 2
@ 62 "/home/xawlw/kernel/arg/arch/arm/include/asm/atomic.h" 1
	@ atomic_add_return
1:	ldrex	ip, [r0]
	add	ip, ip, #1
	strex	r1, ip, [r0]
	teq	r1, #0
	bne	1b
@ 0 "" 2
@ 72 "/home/xawlw/kernel/arg/arch/arm/include/asm/atomic.h" 1
	dmb
@ 0 "" 2
	.arm
	.syntax unified
	cmp	ip, #1
	bne	.L1059
	ldr	r3, [r2, #2336]
	mov	r0, #0
	ldr	r2, [r3, #96]
	cmp	r2, #0
	strne	ip, [r3, #96]
	str	r3, [r4, #124]
.L1058:
	ldr	r4, [sp]
	add	sp, sp, #4
	ldr	pc, [sp], #4
.L1059:
	.syntax divided
@ 82 "/home/xawlw/kernel/arg/arch/arm/include/asm/atomic.h" 1
	@ atomic_sub
1:	ldrex	r2, [r0]
	sub	r2, r2, #1
	strex	r1, r2, [r0]
	teq	r1, #0
	bne	1b
@ 0 "" 2
	.arm
	.syntax unified
	mvn	r0, #15
	b	.L1058
	.fnend
	.size	mtp_open, .-mtp_open
	.align	2
	.syntax unified
	.arm
	.fpu softvfp
	.type	ccid_notify_complete, %function
ccid_notify_complete:
	.fnstart
	@ args = 0, pretend = 0, frame = 0
	@ frame_needed = 0, uses_anonymous_args = 0
	@ link register save eliminated.
	ldr	r1, [r1, #44]
	cmn	r1, #104
	beq	.L1064
	cmp	r1, #0
	beq	.L1064
	cmn	r1, #108
	beq	.L1064
	movw	r0, #:lower16:.LC46
	movt	r0, #:upper16:.LC46
	b	printk
.L1064:
	bx	lr
	.fnend
	.size	ccid_notify_complete, .-ccid_notify_complete
	.align	2
	.syntax unified
	.arm
	.fpu softvfp
	.type	gps_setup, %function
gps_setup:
	.fnstart
	@ args = 0, pretend = 0, frame = 0
	@ frame_needed = 0, uses_anonymous_args = 0
	strd	r4, [sp, #-32]!
	.save {r4, r5, r6, r7, r8, r9, r10, lr}
	strd	r6, [sp, #8]
	strd	r8, [sp, #16]
	str	r10, [sp, #24]
	str	lr, [sp, #28]
	ldr	ip, [r0, #112]
	ldr	r6, [r0, #120]
	ldrh	r2, [r1, #2]	@ unaligned
	ldrh	r5, [r1, #6]	@ unaligned
	cmp	ip, #0
	ldr	r4, [r6, #4]
	beq	.L1083
	ldrh	r3, [r1]	@ unaligned
	movw	r1, #8482
	mov	r7, r0
	rev16	r3, r3
	uxth	r3, r3
	cmp	r3, r1
	beq	.L1078
	movw	r1, #41217
	cmp	r3, r1
	beq	.L1079
	cmp	r3, #8448
	beq	.L1089
.L1085:
	mvn	r4, #94
.L1076:
	mov	r0, r4
	ldrd	r4, [sp]
	ldrd	r6, [sp, #8]
	ldrd	r8, [sp, #16]
	ldr	r10, [sp, #24]
	add	sp, sp, #28
	ldr	pc, [sp], #4
.L1079:
	cmp	r2, #0
	bne	.L1085
	add	r9, r0, #124
	mov	r0, r9
	bl	_raw_spin_lock
	mov	r3, r7
	ldr	r8, [r3, #136]!
	cmp	r8, r3
	beq	.L1090
	ldrd	r2, [r8]
	mov	ip, #256
	mov	r1, #512
	mov	r0, r9
	mov	r9, r8
	str	r3, [r2, #4]
	str	r2, [r3]
	str	ip, [r8]
	str	r1, [r8, #4]
	bl	_raw_spin_unlock
	ldmdb	r8, {r1, r7}
	ldr	r0, [r4]
	cmp	r5, r7
	movcc	r7, r5
	cmp	r7, r5
	mov	r2, r7
	movge	r5, #0
	movlt	r5, #1
	bl	memcpy
	ldr	r0, [r9, #-8]!
	bl	kfree
	mov	r0, r9
	bl	kfree
.L1081:
	ldrb	r3, [r4, #26]	@ zero_extendqisi2
	str	r7, [r4, #4]
	mov	r1, r4
	mov	r2, #32
	bfi	r3, r5, #1, #1
	strb	r3, [r4, #26]
	ldr	r3, [r6]
	ldr	r0, [r3, #4]
	ldr	r3, [r0, #8]
	ldr	r3, [r3, #16]
	blx	r3
	subs	r4, r0, #0
	bge	.L1076
	ldr	r0, [r6]
	movw	r1, #:lower16:.LC48
	mov	r2, r4
	movt	r1, #:upper16:.LC48
	add	r0, r0, #32
	bl	dev_err
	b	.L1076
.L1089:
	movw	r3, #:lower16:gps_cmd_complete
	mov	r7, r5
	str	r0, [r4, #32]
	movt	r3, #:upper16:gps_cmd_complete
	mov	r5, #0
	str	r3, [r4, #28]
	b	.L1081
.L1078:
	ldr	r3, [r0, #92]
	adds	r5, r5, #0
	movne	r5, #1
	cmp	r3, #0
	beq	.L1086
	ldrb	r1, [r0, #104]	@ zero_extendqisi2
	mov	r7, #0
	blx	r3
	b	.L1081
.L1083:
	mvn	r4, #106
	b	.L1076
.L1086:
	mov	r7, r3
	b	.L1081
.L1090:
	movw	r0, #:lower16:.LC47
	ldr	r1, .L1091
	mvn	r4, #94
	movt	r0, #:upper16:.LC47
	bl	printk
	mov	r0, r9
	bl	_raw_spin_unlock
	b	.L1076
.L1092:
	.align	2
.L1091:
	.word	.LANCHOR2+376
	.fnend
	.size	gps_setup, .-gps_setup
	.align	2
	.syntax unified
	.arm
	.fpu softvfp
	.type	gps_notify_complete, %function
gps_notify_complete:
	.fnstart
	@ args = 0, pretend = 0, frame = 0
	@ frame_needed = 0, uses_anonymous_args = 0
	strd	r4, [sp, #-24]!
	.save {r4, r5, r6, r7, r8, lr}
	strd	r6, [sp, #8]
	str	r8, [sp, #16]
	str	lr, [sp, #20]
	ldr	r5, [r1, #32]
	ldr	r3, [r1, #44]
	cmn	r3, #104
	beq	.L1095
	cmp	r3, #0
	mov	r4, r1
	bne	.L1118
.L1096:
	ldr	r3, [r5, #116]
	cmp	r3, #0
	beq	.L1093
	add	r6, r5, #144
	.syntax divided
@ 98 "/home/xawlw/kernel/arg/arch/arm/include/asm/atomic.h" 1
	dmb
@ 0 "" 2
@ 100 "/home/xawlw/kernel/arg/arch/arm/include/asm/atomic.h" 1
	@ atomic_sub_return
1:	ldrex	r3, [r6]
	sub	r3, r3, #1
	strex	r2, r3, [r6]
	teq	r2, #0
	bne	1b
@ 0 "" 2
@ 110 "/home/xawlw/kernel/arg/arch/arm/include/asm/atomic.h" 1
	dmb
@ 0 "" 2
	.arm
	.syntax unified
	cmp	r3, #0
	beq	.L1093
	ldr	r0, [r5, #128]
	mov	r1, r4
	mov	r2, #32
	ldr	r3, [r0, #8]
	ldr	r3, [r3, #16]
	blx	r3
	cmp	r0, #0
	bne	.L1119
.L1093:
	ldrd	r4, [sp]
	ldrd	r6, [sp, #8]
	ldr	r8, [sp, #16]
	add	sp, sp, #20
	ldr	pc, [sp], #4
.L1118:
	cmn	r3, #108
	bne	.L1116
.L1095:
	mov	r3, #0
	str	r3, [r5, #144]
	b	.L1093
.L1119:
	add	r4, r5, #124
	mov	r0, r4
	bl	_raw_spin_lock_irqsave
	ldr	r3, [r5, #136]
	add	r2, r5, #136
	mov	r7, r0
	cmp	r3, r2
	beq	.L1100
	.syntax divided
@ 82 "/home/xawlw/kernel/arg/arch/arm/include/asm/atomic.h" 1
	@ atomic_sub
1:	ldrex	r2, [r6]
	sub	r2, r2, #1
	strex	r1, r2, [r6]
	teq	r1, #0
	bne	1b
@ 0 "" 2
	.arm
	.syntax unified
	ldm	r3, {r1, r2}
	mov	ip, #256
	mov	r0, #512
	mov	r5, r3
	str	r2, [r1, #4]
	str	r1, [r2]
	str	ip, [r3]
	str	r0, [r3, #4]
	ldr	r0, [r5, #-8]!
	bl	kfree
	mov	r0, r5
	bl	kfree
.L1100:
	mov	r1, r7
	mov	r0, r4
	ldrd	r4, [sp]
	ldrd	r6, [sp, #8]
	ldr	r8, [sp, #16]
	ldr	lr, [sp, #20]
	add	sp, sp, #24
	b	_raw_spin_unlock_irqrestore
.L1116:
	movw	r0, #:lower16:.LC49
	mov	r1, r3
	movt	r0, #:upper16:.LC49
	bl	printk
	b	.L1096
	.fnend
	.size	gps_notify_complete, .-gps_notify_complete
	.align	2
	.syntax unified
	.arm
	.fpu softvfp
	.type	frmnet_setup, %function
frmnet_setup:
	.fnstart
	@ args = 0, pretend = 0, frame = 0
	@ frame_needed = 0, uses_anonymous_args = 0
	strd	r4, [sp, #-36]!
	.save {r4, r5, r6, r7, r8, r9, r10, fp, lr}
	strd	r6, [sp, #8]
	strd	r8, [sp, #16]
	strd	r10, [sp, #24]
	str	lr, [sp, #32]
	ldr	r3, [r0, #112]
	.pad #12
	sub	sp, sp, #12
	ldr	r7, [r0, #120]
	ldrh	r9, [r1, #2]	@ unaligned
	ldrh	r6, [r1, #6]	@ unaligned
	cmp	r3, #0
	ldr	r5, [r7, #4]
	beq	.L1127
	ldrh	ip, [r1]	@ unaligned
	movw	r3, #8482
	mov	r4, r0
	mov	r8, r1
	rev16	ip, ip
	uxth	ip, ip
	cmp	ip, r3
	beq	.L1122
	movw	r3, #41217
	cmp	ip, r3
	beq	.L1123
	cmp	ip, #8448
	beq	.L1133
.L1129:
	mvn	r4, #94
.L1120:
	mov	r0, r4
	add	sp, sp, #12
	@ sp needed
	ldrd	r4, [sp]
	ldrd	r6, [sp, #8]
	ldrd	r8, [sp, #16]
	ldrd	r10, [sp, #24]
	add	sp, sp, #32
	ldr	pc, [sp], #4
.L1123:
	cmp	r9, #0
	bne	.L1129
	add	r10, r0, #124
	ldrh	fp, [r1, #4]	@ unaligned
	mov	r0, r10
	bl	_raw_spin_lock
	mov	ip, r4
	ldr	r4, [ip, #136]!
	cmp	r4, ip
	beq	.L1134
	ldrd	r2, [r4]
	mov	ip, #256
	mov	r1, #512
	mov	r0, r10
	mov	r8, r4
	str	r3, [r2, #4]
	str	r2, [r3]
	str	ip, [r4]
	str	r1, [r4, #4]
	bl	_raw_spin_unlock
	ldmdb	r4, {r1, r3}
	ldr	r0, [r5]
	cmp	r6, r3
	movcc	r4, r6
	movcs	r4, r3
	cmp	r4, r6
	mov	r2, r4
	movge	r6, #0
	movlt	r6, #1
	bl	memcpy
	ldr	r0, [r8, #-8]!
	bl	kfree
	mov	r0, r8
	bl	kfree
.L1125:
	ldrb	r3, [r5, #26]	@ zero_extendqisi2
	str	r4, [r5, #4]
	mov	r1, r5
	mov	r2, #32
	bfi	r3, r6, #1, #1
	strb	r3, [r5, #26]
	ldr	r3, [r7]
	ldr	r0, [r3, #4]
	ldr	r3, [r0, #8]
	ldr	r3, [r3, #16]
	blx	r3
	subs	r4, r0, #0
	bge	.L1120
	ldr	r0, [r7]
	movw	r1, #:lower16:.LC51
	mov	r2, r4
	movt	r1, #:upper16:.LC51
	add	r0, r0, #32
	bl	dev_err
	b	.L1120
.L1133:
	movw	r3, #:lower16:frmnet_cmd_complete
	mov	r4, r6
	str	r0, [r5, #32]
	movt	r3, #:upper16:frmnet_cmd_complete
	mov	r6, #0
	str	r3, [r5, #28]
	b	.L1125
.L1122:
	ldr	r8, [r0, #92]
	adds	r6, r6, #0
	movne	r6, #1
	cmp	r8, #0
	beq	.L1130
	ldrb	r1, [r0, #108]	@ zero_extendqisi2
	movw	r3, #:lower16:.LANCHOR1
	mov	r2, r9
	movt	r3, #:upper16:.LANCHOR1
	mov	r4, #0
	add	r1, r1, r1, lsl #1
	add	r3, r3, r1, lsl #3
	ldrb	r1, [r3, #2352]	@ zero_extendqisi2
	blx	r8
	b	.L1125
.L1127:
	mvn	r4, #106
	b	.L1120
.L1130:
	mov	r4, r8
	b	.L1125
.L1134:
	movw	r0, #:lower16:.LC50
	ldrb	r2, [r8, #1]	@ zero_extendqisi2
	mov	r3, r9
	str	fp, [sp]
	movt	r0, #:upper16:.LC50
	ldrb	r1, [r8]	@ zero_extendqisi2
	str	r6, [sp, #4]
	mvn	r4, #94
	bl	printk
	mov	r0, r10
	bl	_raw_spin_unlock
	b	.L1120
	.fnend
	.size	frmnet_setup, .-frmnet_setup
	.align	2
	.syntax unified
	.arm
	.fpu softvfp
	.type	frmnet_notify_complete, %function
frmnet_notify_complete:
	.fnstart
	@ args = 0, pretend = 0, frame = 0
	@ frame_needed = 0, uses_anonymous_args = 0
	strd	r4, [sp, #-16]!
	.save {r4, r5, r6, lr}
	mov	r5, r1
	str	r6, [sp, #8]
	str	lr, [sp, #12]
	ldr	r1, [r1, #44]
	ldr	r4, [r5, #32]
	cmn	r1, #104
	beq	.L1137
	cmp	r1, #0
	bne	.L1162
.L1138:
	ldr	r3, [r4, #116]
	cmp	r3, #0
	bne	.L1163
.L1135:
	ldrd	r4, [sp]
	ldr	r6, [sp, #8]
	add	sp, sp, #12
	ldr	pc, [sp], #4
.L1162:
	cmn	r1, #108
	bne	.L1158
.L1137:
	add	r5, r4, #124
	mov	r0, r5
	bl	_raw_spin_lock_irqsave
	mov	r1, r0
	mov	r3, #0
	mov	r0, r5
	str	r3, [r4, #144]
.L1160:
	ldrd	r4, [sp]
	ldr	r6, [sp, #8]
	ldr	lr, [sp, #12]
	add	sp, sp, #16
	b	_raw_spin_unlock_irqrestore
.L1163:
	add	r6, r4, #124
	mov	r0, r6
	bl	_raw_spin_lock_irqsave
	ldr	r3, [r4, #144]
	cmp	r3, #0
	beq	.L1141
	sub	r3, r3, #1
	mov	r1, r0
	cmp	r3, #0
	mov	r0, r6
	str	r3, [r4, #144]
	beq	.L1160
	bl	_raw_spin_unlock_irqrestore
	ldr	r0, [r4, #128]
	mov	r1, r5
	mov	r2, #32
	ldr	r3, [r0, #8]
	ldr	r3, [r3, #16]
	blx	r3
	cmp	r0, #0
	beq	.L1135
	mov	r0, r6
	bl	_raw_spin_lock_irqsave
	mov	r2, r4
	mov	r5, r0
	ldr	r3, [r2, #136]!
	cmp	r3, r2
	beq	.L1144
	ldr	r2, [r4, #144]
	cmp	r2, #0
	beq	.L1145
	sub	r2, r2, #1
	mov	ip, #256
	mov	r0, #512
	str	r2, [r4, #144]
	ldm	r3, {r1, r2}
	mov	r4, r3
	str	r2, [r1, #4]
	str	r1, [r2]
	str	ip, [r3]
	str	r0, [r3, #4]
	ldr	r0, [r4, #-8]!
	bl	kfree
	mov	r0, r4
	bl	kfree
.L1144:
	mov	r1, r5
	b	.L1161
.L1141:
	mov	r1, r0
.L1161:
	mov	r0, r6
	b	.L1160
.L1158:
	movw	r0, #:lower16:.LC52
	movt	r0, #:upper16:.LC52
	bl	printk
	b	.L1138
.L1145:
	movw	r0, #:lower16:.LC53
	ldr	r1, .L1164
	movt	r0, #:upper16:.LC53
	bl	printk
	b	.L1144
.L1165:
	.align	2
.L1164:
	.word	.LANCHOR2+388
	.fnend
	.size	frmnet_notify_complete, .-frmnet_notify_complete
	.align	2
	.syntax unified
	.arm
	.fpu softvfp
	.type	mbim_function_ctrlrequest, %function
mbim_function_ctrlrequest:
	.fnstart
	@ args = 0, pretend = 0, frame = 0
	@ frame_needed = 0, uses_anonymous_args = 0
	strd	r4, [sp, #-16]!
	.save {r4, r5, r6, lr}
	str	r6, [sp, #8]
	str	lr, [sp, #12]
	ldr	r3, [r1, #12]
	ldrh	r5, [r2, #6]	@ unaligned
	cmp	r3, #0
	bne	.L1175
	movw	r0, #:lower16:.LANCHOR0
	movt	r0, #:upper16:.LANCHOR0
	ldrb	r3, [r0, #190]	@ zero_extendqisi2
	cmp	r3, #0
	beq	.L1175
	ldrb	r3, [r2]	@ zero_extendqisi2
	mov	r4, r1
	ldrb	r1, [r2, #1]	@ zero_extendqisi2
	cmp	r3, #128
	beq	.L1177
	ldrh	r2, [r2, #4]	@ unaligned
	cmp	r3, #192
	cmpeq	r1, #165
	moveq	r3, #1
	movne	r3, #0
	cmp	r2, #4
	movne	r3, #0
	andeq	r3, r3, #1
	cmp	r3, #0
	beq	.L1175
	ldr	r3, [r4, #4]
	cmp	r5, #40
	add	r1, r0, #164
	movcc	r6, r5
	movcs	r6, #40
	mov	r2, r6
	ldr	r0, [r3]
	bl	memcpy
.L1169:
	ldr	r3, [r4, #4]
	cmp	r5, r6
	mov	r2, #32
	movle	r5, #0
	movgt	r5, #1
	ldrb	r1, [r3, #26]	@ zero_extendqisi2
	bfi	r1, r5, #1, #1
	strb	r1, [r3, #26]
	ldr	r3, [r4, #4]
	str	r6, [r3, #4]
	ldr	r3, [r4]
	ldr	r1, [r4, #4]
	ldr	r0, [r3, #4]
	ldr	r3, [r0, #8]
	ldr	r3, [r3, #16]
	blx	r3
	subs	r2, r0, #0
	blt	.L1178
.L1166:
	mov	r0, r6
	ldrd	r4, [sp]
	ldr	r6, [sp, #8]
	add	sp, sp, #12
	ldr	pc, [sp], #4
.L1177:
	cmp	r1, #6
	beq	.L1179
.L1175:
	mvn	r6, #94
	b	.L1166
.L1179:
	ldrh	r3, [r2, #2]	@ unaligned
	lsr	r2, r3, #8
	cmp	r2, #3
	bne	.L1175
	uxtb	r3, r3
	cmp	r3, #238
	bne	.L1175
	ldr	r3, [r4, #4]
	cmp	r5, #18
	add	r1, r0, #204
	movcc	r6, r5
	movcs	r6, #18
	mov	r2, r6
	ldr	r0, [r3]
	bl	memcpy
	b	.L1169
.L1178:
	movw	r0, #:lower16:.LC54
	ldr	r1, .L1180
	movt	r0, #:upper16:.LC54
	bl	printk
	b	.L1166
.L1181:
	.align	2
.L1180:
	.word	.LANCHOR2+412
	.fnend
	.size	mbim_function_ctrlrequest, .-mbim_function_ctrlrequest
	.align	2
	.syntax unified
	.arm
	.fpu softvfp
	.type	mbim_release, %function
mbim_release:
	.fnstart
	@ args = 0, pretend = 0, frame = 0
	@ frame_needed = 0, uses_anonymous_args = 0
	movw	r0, #:lower16:.LC55
	.save {r4, lr}
	str	r4, [sp, #-8]!
	ldr	r1, .L1184
	movt	r0, #:upper16:.LC55
	str	lr, [sp, #4]
	bl	printk
	movw	r3, #:lower16:.LANCHOR1
	movt	r3, #:upper16:.LANCHOR1
	ldr	r3, [r3, #2412]
	add	r2, r3, #84
	.syntax divided
@ 82 "/home/xawlw/kernel/arg/arch/arm/include/asm/atomic.h" 1
	@ atomic_sub
1:	ldrex	r1, [r2]
	sub	r1, r1, #1
	strex	r0, r1, [r2]
	teq	r0, #0
	bne	1b
@ 0 "" 2
	.arm
	.syntax unified
	ldr	r4, [sp]
	add	sp, sp, #4
	mov	r0, #0
	ldr	pc, [sp], #4
.L1185:
	.align	2
.L1184:
	.word	.LANCHOR2+432
	.fnend
	.size	mbim_release, .-mbim_release
	.align	2
	.syntax unified
	.arm
	.fpu softvfp
	.type	mbim_open, %function
mbim_open:
	.fnstart
	@ args = 0, pretend = 0, frame = 0
	@ frame_needed = 0, uses_anonymous_args = 0
	strd	r4, [sp, #-16]!
	.save {r4, r5, r6, lr}
	movw	r0, #:lower16:.LC56
	movw	r4, #:lower16:.LANCHOR1
	mov	r5, r1
	movt	r0, #:upper16:.LC56
	ldr	r1, .L1195
	movt	r4, #:upper16:.LANCHOR1
	str	r6, [sp, #8]
	str	lr, [sp, #12]
	bl	printk
	ldr	r3, [r4, #2412]
	cmp	r3, #0
	beq	.L1193
	add	r2, r3, #84
	.syntax divided
@ 60 "/home/xawlw/kernel/arg/arch/arm/include/asm/atomic.h" 1
	dmb
@ 0 "" 2
@ 62 "/home/xawlw/kernel/arg/arch/arm/include/asm/atomic.h" 1
	@ atomic_add_return
1:	ldrex	r1, [r2]
	add	r1, r1, #1
	strex	r0, r1, [r2]
	teq	r0, #0
	bne	1b
@ 0 "" 2
@ 72 "/home/xawlw/kernel/arg/arch/arm/include/asm/atomic.h" 1
	dmb
@ 0 "" 2
	.arm
	.syntax unified
	cmp	r1, #1
	bne	.L1189
	movw	r0, #:lower16:.LC58
	ldr	r1, .L1195
	movt	r0, #:upper16:.LC58
	bl	printk
	ldr	r3, [r4, #2412]
	ldr	r2, [r3, #80]
	cmp	r2, #0
	beq	.L1194
.L1191:
	mov	r4, #0
	movw	r0, #:lower16:.LC61
	str	r3, [r5, #124]
	movt	r0, #:upper16:.LC61
	ldr	r1, .L1195
	str	r4, [r3, #224]
	bl	printk
	mov	r0, r4
.L1186:
	ldrd	r4, [sp]
	ldr	r6, [sp, #8]
	add	sp, sp, #12
	ldr	pc, [sp], #4
.L1189:
	.syntax divided
@ 82 "/home/xawlw/kernel/arg/arch/arm/include/asm/atomic.h" 1
	@ atomic_sub
1:	ldrex	r1, [r2]
	sub	r1, r1, #1
	strex	r0, r1, [r2]
	teq	r0, #0
	bne	1b
@ 0 "" 2
	.arm
	.syntax unified
	movw	r0, #:lower16:.LC59
	ldr	r1, .L1195
	movt	r0, #:upper16:.LC59
	bl	printk
	mvn	r0, #15
	b	.L1186
.L1193:
	movw	r0, #:lower16:.LC57
	ldr	r1, .L1195
	movt	r0, #:upper16:.LC57
	bl	printk
	mvn	r0, #18
	b	.L1186
.L1194:
	movw	r0, #:lower16:.LC60
	ldr	r1, .L1195
	movt	r0, #:upper16:.LC60
	bl	printk
	ldr	r3, [r4, #2412]
	b	.L1191
.L1196:
	.align	2
.L1195:
	.word	.LANCHOR2+448
	.fnend
	.size	mbim_open, .-mbim_open
	.align	2
	.global	gsdio_tx_pull
	.syntax unified
	.arm
	.fpu softvfp
	.type	gsdio_tx_pull, %function
gsdio_tx_pull:
	.fnstart
	@ args = 0, pretend = 0, frame = 0
	@ frame_needed = 0, uses_anonymous_args = 0
	strd	r4, [sp, #-32]!
	.save {r4, r5, r6, r7, r8, r9, r10, lr}
	mov	r4, r0
	strd	r6, [sp, #8]
	strd	r8, [sp, #16]
	sub	r8, r0, #60
	str	r10, [sp, #24]
	str	lr, [sp, #28]
	ldr	r3, [r0, #36]
	.pad #8
	sub	sp, sp, #8
	cmp	r3, #0
	beq	.L1208
	sub	r5, r0, #56
	sub	r7, r0, #8
	mov	r0, r5
	bl	_raw_spin_lock_irq
	ldr	r6, [r4, #-8]
	cmp	r7, r6
	beq	.L1202
	ldr	r3, [r4, #48]
	cmp	r3, #0
	bne	.L1209
.L1202:
	mov	r0, r5
	add	sp, sp, #8
	@ sp needed
	ldrd	r4, [sp]
	ldrd	r6, [sp, #8]
	ldrd	r8, [sp, #16]
	ldr	r10, [sp, #24]
	ldr	lr, [sp, #28]
	add	sp, sp, #32
	b	_raw_spin_unlock_irq
.L1208:
	movw	r0, #:lower16:.LC62
	ldr	r1, .L1212
	movt	r0, #:upper16:.LC62
	bl	printk
	cmp	r8, #0
	beq	.L1210
	ldr	r3, [r4, #60]
	ldr	r3, [r3, #4]
	cmp	r3, #0
	beq	.L1197
.L1201:
	b	.L1201
.L1197:
	add	sp, sp, #8
	@ sp needed
	ldrd	r4, [sp]
	ldrd	r6, [sp, #8]
	ldrd	r8, [sp, #16]
	ldr	r10, [sp, #24]
	add	sp, sp, #28
	ldr	pc, [sp], #4
.L1209:
	ldrd	r2, [r6]
	mov	ip, #256
	mov	r1, #512
	ldr	lr, [r4, #36]
	mov	r0, r5
	sub	r10, r6, #36
	ldr	r9, [lr, #80]
	str	r3, [r2, #4]
	str	r2, [r3]
	str	ip, [r6]
	str	r1, [r6, #4]
	ldr	r3, [r4, #16]
	sub	r3, r3, #1
	str	r3, [r4, #16]
	bl	_raw_spin_unlock_irq
	mov	r0, r5
	bl	_raw_spin_lock_irq
	mvn	r1, #18
	movw	r0, #:lower16:.LC63
	ldr	r3, [r4, #-60]
	mov	r2, r8
	movt	r0, #:upper16:.LC63
	str	r1, [sp]
	ldr	r1, .L1212
	bl	printk
	ldr	r3, [r4, #36]
	cmp	r3, #0
	beq	.L1211
	ldr	r3, [r4, #-8]
	str	r6, [r3, #4]
	stm	r6, {r3, r7}
	ldr	r3, [r4, #16]
	str	r6, [r4, #-8]
	add	r3, r3, #1
	str	r3, [r4, #16]
	b	.L1202
.L1210:
	ldr	r1, .L1212+4
	movw	r0, #:lower16:.LC15
	movt	r0, #:upper16:.LC15
	add	sp, sp, #8
	@ sp needed
	ldrd	r4, [sp]
	ldrd	r6, [sp, #8]
	ldrd	r8, [sp, #16]
	ldr	r10, [sp, #24]
	ldr	lr, [sp, #28]
	add	sp, sp, #32
	b	printk
.L1211:
	ldr	r0, [r6, #-36]
	bl	kfree
	ldr	r3, [r9, #8]
	mov	r1, r10
	mov	r0, r9
	ldr	r3, [r3, #12]
	blx	r3
	b	.L1202
.L1213:
	.align	2
.L1212:
	.word	.LANCHOR2+460
	.word	.LANCHOR2+476
	.fnend
	.size	gsdio_tx_pull, .-gsdio_tx_pull
	.align	2
	.syntax unified
	.arm
	.fpu softvfp
	.type	gsdio_open_work, %function
gsdio_open_work:
	.fnstart
	@ args = 0, pretend = 0, frame = 0
	@ frame_needed = 0, uses_anonymous_args = 0
	mov	r2, r0
	.save {lr}
	str	lr, [sp, #-4]!
	ldr	r1, .L1216
	ldr	ip, [r2, #-4]
	.pad #12
	sub	sp, sp, #12
	movw	r0, #:lower16:.LC64
	ldr	r3, [r2, #-124]!
	movt	r0, #:upper16:.LC64
	ldr	ip, [ip]
	str	ip, [sp]
	bl	printk
	add	sp, sp, #12
	@ sp needed
	ldr	pc, [sp], #4
.L1217:
	.align	2
.L1216:
	.word	.LANCHOR2+496
	.fnend
	.size	gsdio_open_work, .-gsdio_open_work
	.align	2
	.syntax unified
	.arm
	.fpu softvfp
	.type	remote_wakeup_show, %function
remote_wakeup_show:
	.fnstart
	@ args = 0, pretend = 0, frame = 0
	@ frame_needed = 0, uses_anonymous_args = 0
	.save {r4, lr}
	str	r4, [sp, #-8]!
	mov	r4, r2
	str	lr, [sp, #4]
	bl	dev_get_drvdata
	ldr	r3, [r0, #204]
	cmp	r3, #0
	moveq	r0, r3
	beq	.L1218
	ldr	r3, [r0, #196]
	movw	r2, #:lower16:.LC65
	mov	r1, #4096
	movt	r2, #:upper16:.LC65
	mov	r0, r4
	ldrb	r3, [r3, #-98]	@ zero_extendqisi2
	ubfx	r3, r3, #5, #1
	bl	snprintf
	mov	r0, #2
.L1218:
	ldr	r4, [sp]
	add	sp, sp, #4
	ldr	pc, [sp], #4
	.fnend
	.size	remote_wakeup_show, .-remote_wakeup_show
	.align	2
	.syntax unified
	.arm
	.fpu softvfp
	.type	state_show, %function
state_show:
	.fnstart
	@ args = 0, pretend = 0, frame = 0
	@ frame_needed = 0, uses_anonymous_args = 0
	strd	r4, [sp, #-24]!
	.save {r4, r5, r6, r7, r8, lr}
	strd	r6, [sp, #8]
	mov	r6, r2
	str	r8, [sp, #16]
	str	lr, [sp, #20]
	bl	dev_get_drvdata
	ldr	r4, [r0, #8]
	cmp	r4, #0
	movweq	r4, #:lower16:.LC67
	movteq	r4, #:upper16:.LC67
	beq	.L1223
	add	r7, r4, #60
	mov	r5, r0
	mov	r0, r7
	bl	_raw_spin_lock_irqsave
	ldr	r3, [r4, #12]
	mov	r1, r0
	cmp	r3, #0
	movwne	r4, #:lower16:.LC66
	movtne	r4, #:upper16:.LC66
	beq	.L1229
.L1224:
	mov	r0, r7
	bl	_raw_spin_unlock_irqrestore
.L1223:
	movw	r2, #:lower16:.LC69
	mov	r3, r4
	ldrd	r4, [sp]
	mov	r0, r6
	movt	r2, #:upper16:.LC69
	ldrd	r6, [sp, #8]
	ldr	r8, [sp, #16]
	mov	r1, #4096
	ldr	lr, [sp, #20]
	add	sp, sp, #24
	b	snprintf
.L1229:
	ldrb	r2, [r5, #52]	@ zero_extendqisi2
	movw	r3, #:lower16:.LC68
	movw	r4, #:lower16:.LC67
	movt	r3, #:upper16:.LC68
	movt	r4, #:upper16:.LC67
	cmp	r2, #0
	movne	r4, r3
	b	.L1224
	.fnend
	.size	state_show, .-state_show
	.align	2
	.syntax unified
	.arm
	.fpu softvfp
	.type	pm_qos_show, %function
pm_qos_show:
	.fnstart
	@ args = 0, pretend = 0, frame = 0
	@ frame_needed = 0, uses_anonymous_args = 0
	.save {r4, lr}
	str	r4, [sp, #-8]!
	mov	r4, r2
	str	lr, [sp, #4]
	bl	dev_get_drvdata
	movw	r2, #:lower16:.LC69
	add	r3, r0, #56
	ldr	lr, [sp, #4]
	mov	r0, r4
	movt	r2, #:upper16:.LC69
	ldr	r4, [sp]
	mov	r1, #4096
	add	sp, sp, #8
	b	snprintf
	.fnend
	.size	pm_qos_show, .-pm_qos_show
	.align	2
	.syntax unified
	.arm
	.fpu softvfp
	.type	enable_show, %function
enable_show:
	.fnstart
	@ args = 0, pretend = 0, frame = 0
	@ frame_needed = 0, uses_anonymous_args = 0
	.save {r4, lr}
	str	r4, [sp, #-8]!
	mov	r4, r2
	str	lr, [sp, #4]
	bl	dev_get_drvdata
	movw	r2, #:lower16:.LC65
	ldrb	r3, [r0, #16]	@ zero_extendqisi2
	mov	r1, #4096
	mov	r0, r4
	movt	r2, #:upper16:.LC65
	bl	snprintf
	ldr	r4, [sp]
	add	sp, sp, #4
	mov	r0, #2
	ldr	pc, [sp], #4
	.fnend
	.size	enable_show, .-enable_show
	.align	2
	.syntax unified
	.arm
	.fpu softvfp
	.type	iSerial_show, %function
iSerial_show:
	.fnstart
	@ args = 0, pretend = 0, frame = 0
	@ frame_needed = 0, uses_anonymous_args = 0
	@ link register save eliminated.
	mov	r0, r2
	movw	r2, #:lower16:.LC70
	ldr	r3, .L1235
	movt	r2, #:upper16:.LC70
	mov	r1, #4096
	b	snprintf
.L1236:
	.align	2
.L1235:
	.word	.LANCHOR1+2416
	.fnend
	.size	iSerial_show, .-iSerial_show
	.align	2
	.syntax unified
	.arm
	.fpu softvfp
	.type	iProduct_show, %function
iProduct_show:
	.fnstart
	@ args = 0, pretend = 0, frame = 0
	@ frame_needed = 0, uses_anonymous_args = 0
	@ link register save eliminated.
	mov	r0, r2
	movw	r2, #:lower16:.LC70
	ldr	r3, .L1238
	movt	r2, #:upper16:.LC70
	mov	r1, #4096
	b	snprintf
.L1239:
	.align	2
.L1238:
	.word	.LANCHOR1+2672
	.fnend
	.size	iProduct_show, .-iProduct_show
	.align	2
	.syntax unified
	.arm
	.fpu softvfp
	.type	iManufacturer_show, %function
iManufacturer_show:
	.fnstart
	@ args = 0, pretend = 0, frame = 0
	@ frame_needed = 0, uses_anonymous_args = 0
	@ link register save eliminated.
	mov	r0, r2
	movw	r2, #:lower16:.LC70
	ldr	r3, .L1241
	movt	r2, #:upper16:.LC70
	mov	r1, #4096
	b	snprintf
.L1242:
	.align	2
.L1241:
	.word	.LANCHOR1+2928
	.fnend
	.size	iManufacturer_show, .-iManufacturer_show
	.align	2
	.syntax unified
	.arm
	.fpu softvfp
	.type	bDeviceProtocol_show, %function
bDeviceProtocol_show:
	.fnstart
	@ args = 0, pretend = 0, frame = 0
	@ frame_needed = 0, uses_anonymous_args = 0
	@ link register save eliminated.
	movw	r3, #:lower16:.LANCHOR0
	mov	r0, r2
	movt	r3, #:upper16:.LANCHOR0
	movw	r2, #:lower16:.LC65
	ldrb	r3, [r3, #230]	@ zero_extendqisi2
	movt	r2, #:upper16:.LC65
	mov	r1, #4096
	b	snprintf
	.fnend
	.size	bDeviceProtocol_show, .-bDeviceProtocol_show
	.align	2
	.syntax unified
	.arm
	.fpu softvfp
	.type	bDeviceSubClass_show, %function
bDeviceSubClass_show:
	.fnstart
	@ args = 0, pretend = 0, frame = 0
	@ frame_needed = 0, uses_anonymous_args = 0
	@ link register save eliminated.
	movw	r3, #:lower16:.LANCHOR0
	mov	r0, r2
	movt	r3, #:upper16:.LANCHOR0
	movw	r2, #:lower16:.LC65
	ldrb	r3, [r3, #229]	@ zero_extendqisi2
	movt	r2, #:upper16:.LC65
	mov	r1, #4096
	b	snprintf
	.fnend
	.size	bDeviceSubClass_show, .-bDeviceSubClass_show
	.align	2
	.syntax unified
	.arm
	.fpu softvfp
	.type	bDeviceClass_show, %function
bDeviceClass_show:
	.fnstart
	@ args = 0, pretend = 0, frame = 0
	@ frame_needed = 0, uses_anonymous_args = 0
	@ link register save eliminated.
	movw	r3, #:lower16:.LANCHOR0
	mov	r0, r2
	movt	r3, #:upper16:.LANCHOR0
	movw	r2, #:lower16:.LC65
	ldrb	r3, [r3, #228]	@ zero_extendqisi2
	movt	r2, #:upper16:.LC65
	mov	r1, #4096
	b	snprintf
	.fnend
	.size	bDeviceClass_show, .-bDeviceClass_show
	.align	2
	.syntax unified
	.arm
	.fpu softvfp
	.type	bcdDevice_show, %function
bcdDevice_show:
	.fnstart
	@ args = 0, pretend = 0, frame = 0
	@ frame_needed = 0, uses_anonymous_args = 0
	movw	r3, #:lower16:.LANCHOR0
	mov	r0, r2
	.save {r4, lr}
	str	r4, [sp, #-8]!
	movt	r3, #:upper16:.LANCHOR0
	movw	r2, #:lower16:.LC71
	str	lr, [sp, #4]
	movt	r2, #:upper16:.LC71
	mov	r1, #4096
	ldrh	r3, [r3, #236]
	bl	snprintf
	ldr	r4, [sp]
	add	sp, sp, #4
	mov	r0, #5
	ldr	pc, [sp], #4
	.fnend
	.size	bcdDevice_show, .-bcdDevice_show
	.align	2
	.syntax unified
	.arm
	.fpu softvfp
	.type	idProduct_show, %function
idProduct_show:
	.fnstart
	@ args = 0, pretend = 0, frame = 0
	@ frame_needed = 0, uses_anonymous_args = 0
	movw	r3, #:lower16:.LANCHOR0
	mov	r0, r2
	.save {r4, lr}
	str	r4, [sp, #-8]!
	movt	r3, #:upper16:.LANCHOR0
	movw	r2, #:lower16:.LC71
	str	lr, [sp, #4]
	movt	r2, #:upper16:.LC71
	mov	r1, #4096
	ldrh	r3, [r3, #234]
	bl	snprintf
	ldr	r4, [sp]
	add	sp, sp, #4
	mov	r0, #5
	ldr	pc, [sp], #4
	.fnend
	.size	idProduct_show, .-idProduct_show
	.align	2
	.syntax unified
	.arm
	.fpu softvfp
	.type	idVendor_show, %function
idVendor_show:
	.fnstart
	@ args = 0, pretend = 0, frame = 0
	@ frame_needed = 0, uses_anonymous_args = 0
	movw	r3, #:lower16:.LANCHOR0
	mov	r0, r2
	.save {r4, lr}
	str	r4, [sp, #-8]!
	movt	r3, #:upper16:.LANCHOR0
	movw	r2, #:lower16:.LC71
	str	lr, [sp, #4]
	movt	r2, #:upper16:.LC71
	mov	r1, #4096
	ldrh	r3, [r3, #232]
	bl	snprintf
	ldr	r4, [sp]
	add	sp, sp, #4
	mov	r0, #5
	ldr	pc, [sp], #4
	.fnend
	.size	idVendor_show, .-idVendor_show
	.align	2
	.syntax unified
	.arm
	.fpu softvfp
	.type	audio_source_pcm_show, %function
audio_source_pcm_show:
	.fnstart
	@ args = 0, pretend = 0, frame = 0
	@ frame_needed = 0, uses_anonymous_args = 0
	.save {r4, lr}
	str	r4, [sp, #-8]!
	mov	r4, r2
	str	lr, [sp, #4]
	.pad #8
	sub	sp, sp, #8
	bl	dev_get_drvdata
	ldr	ip, [r0, #4]
	movw	r2, #:lower16:.LC72
	mov	r1, #4096
	movt	r2, #:upper16:.LC72
	mov	r0, r4
	ldm	ip, {r3, ip}
	str	ip, [sp]
	bl	snprintf
	add	sp, sp, #8
	@ sp needed
	ldr	r4, [sp]
	add	sp, sp, #4
	ldr	pc, [sp], #4
	.fnend
	.size	audio_source_pcm_show, .-audio_source_pcm_show
	.align	2
	.syntax unified
	.arm
	.fpu softvfp
	.type	mass_storage_inquiry_show, %function
mass_storage_inquiry_show:
	.fnstart
	@ args = 0, pretend = 0, frame = 0
	@ frame_needed = 0, uses_anonymous_args = 0
	.save {r4, lr}
	str	r4, [sp, #-8]!
	mov	r4, r2
	str	lr, [sp, #4]
	bl	dev_get_drvdata
	ldr	r3, [r0, #4]
	movw	r2, #:lower16:.LC69
	mov	r0, r4
	movt	r2, #:upper16:.LC69
	ldr	r4, [sp]
	mov	r1, #4096
	ldr	lr, [sp, #4]
	add	sp, sp, #8
	ldr	r3, [r3, #96]
	add	r3, r3, #180
	b	snprintf
	.fnend
	.size	mass_storage_inquiry_show, .-mass_storage_inquiry_show
	.align	2
	.syntax unified
	.arm
	.fpu softvfp
	.type	ncm_ethaddr_show, %function
ncm_ethaddr_show:
	.fnstart
	@ args = 0, pretend = 0, frame = 0
	@ frame_needed = 0, uses_anonymous_args = 0
	.save {r4, lr}
	str	r4, [sp, #-8]!
	mov	r4, r2
	str	lr, [sp, #4]
	.pad #24
	sub	sp, sp, #24
	bl	dev_get_drvdata
	ldr	ip, [r0, #4]
	movw	r2, #:lower16:.LC73
	mov	r1, #4096
	movt	r2, #:upper16:.LC73
	mov	r0, r4
	ldrb	lr, [ip, #5]	@ zero_extendqisi2
	ldrb	r3, [ip]	@ zero_extendqisi2
	str	lr, [sp, #16]
	ldrb	lr, [ip, #4]	@ zero_extendqisi2
	str	lr, [sp, #12]
	ldrb	lr, [ip, #3]	@ zero_extendqisi2
	str	lr, [sp, #8]
	ldrb	lr, [ip, #2]	@ zero_extendqisi2
	str	lr, [sp, #4]
	ldrb	ip, [ip, #1]	@ zero_extendqisi2
	str	ip, [sp]
	bl	snprintf
	mov	r0, #18
	add	sp, sp, #24
	@ sp needed
	ldr	r4, [sp]
	add	sp, sp, #4
	ldr	pc, [sp], #4
	.fnend
	.size	ncm_ethaddr_show, .-ncm_ethaddr_show
	.align	2
	.syntax unified
	.arm
	.fpu softvfp
	.type	ecm_ethaddr_show, %function
ecm_ethaddr_show:
	.fnstart
	@ args = 0, pretend = 0, frame = 0
	@ frame_needed = 0, uses_anonymous_args = 0
	.save {r4, lr}
	str	r4, [sp, #-8]!
	mov	r4, r2
	str	lr, [sp, #4]
	.pad #24
	sub	sp, sp, #24
	bl	dev_get_drvdata
	ldr	ip, [r0, #4]
	movw	r2, #:lower16:.LC73
	mov	r1, #4096
	movt	r2, #:upper16:.LC73
	mov	r0, r4
	ldrb	lr, [ip, #5]	@ zero_extendqisi2
	ldrb	r3, [ip]	@ zero_extendqisi2
	str	lr, [sp, #16]
	ldrb	lr, [ip, #4]	@ zero_extendqisi2
	str	lr, [sp, #12]
	ldrb	lr, [ip, #3]	@ zero_extendqisi2
	str	lr, [sp, #8]
	ldrb	lr, [ip, #2]	@ zero_extendqisi2
	str	lr, [sp, #4]
	ldrb	ip, [ip, #1]	@ zero_extendqisi2
	str	ip, [sp]
	bl	snprintf
	mov	r0, #18
	add	sp, sp, #24
	@ sp needed
	ldr	r4, [sp]
	add	sp, sp, #4
	ldr	pc, [sp], #4
	.fnend
	.size	ecm_ethaddr_show, .-ecm_ethaddr_show
	.align	2
	.syntax unified
	.arm
	.fpu softvfp
	.type	ecm_transports_show, %function
ecm_transports_show:
	.fnstart
	@ args = 0, pretend = 0, frame = 0
	@ frame_needed = 0, uses_anonymous_args = 0
	@ link register save eliminated.
	mov	r0, r2
	movw	r2, #:lower16:.LC69
	ldr	r3, .L1261
	movt	r2, #:upper16:.LC69
	mov	r1, #4096
	b	snprintf
.L1262:
	.align	2
.L1261:
	.word	.LANCHOR1+3184
	.fnend
	.size	ecm_transports_show, .-ecm_transports_show
	.align	2
	.syntax unified
	.arm
	.fpu softvfp
	.type	rndis_max_pkt_per_xfer_show, %function
rndis_max_pkt_per_xfer_show:
	.fnstart
	@ args = 0, pretend = 0, frame = 0
	@ frame_needed = 0, uses_anonymous_args = 0
	.save {r4, lr}
	str	r4, [sp, #-8]!
	mov	r4, r2
	str	lr, [sp, #4]
	bl	dev_get_drvdata
	ldr	r3, [r0, #4]
	movw	r2, #:lower16:.LC65
	mov	r0, r4
	movt	r2, #:upper16:.LC65
	ldr	r4, [sp]
	mov	r1, #4096
	ldr	lr, [sp, #4]
	add	sp, sp, #8
	ldrb	r3, [r3, #12]	@ zero_extendqisi2
	b	snprintf
	.fnend
	.size	rndis_max_pkt_per_xfer_show, .-rndis_max_pkt_per_xfer_show
	.align	2
	.syntax unified
	.arm
	.fpu softvfp
	.type	rndis_vendorID_show, %function
rndis_vendorID_show:
	.fnstart
	@ args = 0, pretend = 0, frame = 0
	@ frame_needed = 0, uses_anonymous_args = 0
	.save {r4, lr}
	str	r4, [sp, #-8]!
	mov	r4, r2
	str	lr, [sp, #4]
	bl	dev_get_drvdata
	ldr	r3, [r0, #4]
	movw	r2, #:lower16:.LC71
	mov	r0, r4
	movt	r2, #:upper16:.LC71
	ldr	r4, [sp]
	mov	r1, #4096
	ldr	lr, [sp, #4]
	add	sp, sp, #8
	ldr	r3, [r3, #8]
	b	snprintf
	.fnend
	.size	rndis_vendorID_show, .-rndis_vendorID_show
	.align	2
	.syntax unified
	.arm
	.fpu softvfp
	.type	rndis_ethaddr_show, %function
rndis_ethaddr_show:
	.fnstart
	@ args = 0, pretend = 0, frame = 0
	@ frame_needed = 0, uses_anonymous_args = 0
	.save {r4, lr}
	str	r4, [sp, #-8]!
	mov	r4, r2
	str	lr, [sp, #4]
	.pad #24
	sub	sp, sp, #24
	bl	dev_get_drvdata
	ldr	ip, [r0, #4]
	movw	r2, #:lower16:.LC73
	mov	r1, #4096
	movt	r2, #:upper16:.LC73
	mov	r0, r4
	ldrb	lr, [ip, #5]	@ zero_extendqisi2
	ldrb	r3, [ip]	@ zero_extendqisi2
	str	lr, [sp, #16]
	ldrb	lr, [ip, #4]	@ zero_extendqisi2
	str	lr, [sp, #12]
	ldrb	lr, [ip, #3]	@ zero_extendqisi2
	str	lr, [sp, #8]
	ldrb	lr, [ip, #2]	@ zero_extendqisi2
	str	lr, [sp, #4]
	ldrb	ip, [ip, #1]	@ zero_extendqisi2
	str	ip, [sp]
	bl	snprintf
	mov	r0, #18
	add	sp, sp, #24
	@ sp needed
	ldr	r4, [sp]
	add	sp, sp, #4
	ldr	pc, [sp], #4
	.fnend
	.size	rndis_ethaddr_show, .-rndis_ethaddr_show
	.align	2
	.syntax unified
	.arm
	.fpu softvfp
	.type	rndis_wceis_show, %function
rndis_wceis_show:
	.fnstart
	@ args = 0, pretend = 0, frame = 0
	@ frame_needed = 0, uses_anonymous_args = 0
	.save {r4, lr}
	str	r4, [sp, #-8]!
	mov	r4, r2
	str	lr, [sp, #4]
	bl	dev_get_drvdata
	ldr	r3, [r0, #4]
	movw	r2, #:lower16:.LC65
	mov	r0, r4
	movt	r2, #:upper16:.LC65
	mov	r1, #4096
	ldrb	r3, [r3, #269]	@ zero_extendqisi2
	bl	snprintf
	ldr	r4, [sp]
	add	sp, sp, #4
	mov	r0, #2
	ldr	pc, [sp], #4
	.fnend
	.size	rndis_wceis_show, .-rndis_wceis_show
	.align	2
	.syntax unified
	.arm
	.fpu softvfp
	.type	rndis_manufacturer_show, %function
rndis_manufacturer_show:
	.fnstart
	@ args = 0, pretend = 0, frame = 0
	@ frame_needed = 0, uses_anonymous_args = 0
	.save {r4, lr}
	str	r4, [sp, #-8]!
	mov	r4, r2
	str	lr, [sp, #4]
	bl	dev_get_drvdata
	ldr	r3, [r0, #4]
	movw	r2, #:lower16:.LC69
	mov	r0, r4
	movt	r2, #:upper16:.LC69
	ldr	r4, [sp]
	mov	r1, #4096
	ldr	lr, [sp, #4]
	add	sp, sp, #8
	add	r3, r3, #13
	b	snprintf
	.fnend
	.size	rndis_manufacturer_show, .-rndis_manufacturer_show
	.align	2
	.syntax unified
	.arm
	.fpu softvfp
	.type	serial_xport_names_show, %function
serial_xport_names_show:
	.fnstart
	@ args = 0, pretend = 0, frame = 0
	@ frame_needed = 0, uses_anonymous_args = 0
	@ link register save eliminated.
	mov	r0, r2
	movw	r2, #:lower16:.LC69
	ldr	r3, .L1274
	movt	r2, #:upper16:.LC69
	mov	r1, #4096
	b	snprintf
.L1275:
	.align	2
.L1274:
	.word	.LANCHOR1+3236
	.fnend
	.size	serial_xport_names_show, .-serial_xport_names_show
	.align	2
	.syntax unified
	.arm
	.fpu softvfp
	.type	rmnet_xport_names_show, %function
rmnet_xport_names_show:
	.fnstart
	@ args = 0, pretend = 0, frame = 0
	@ frame_needed = 0, uses_anonymous_args = 0
	@ link register save eliminated.
	mov	r0, r2
	movw	r2, #:lower16:.LC69
	ldr	r3, .L1277
	movt	r2, #:upper16:.LC69
	mov	r1, #4096
	b	snprintf
.L1278:
	.align	2
.L1277:
	.word	.LANCHOR1+3268
	.fnend
	.size	rmnet_xport_names_show, .-rmnet_xport_names_show
	.align	2
	.syntax unified
	.arm
	.fpu softvfp
	.type	rmnet_transports_show, %function
rmnet_transports_show:
	.fnstart
	@ args = 0, pretend = 0, frame = 0
	@ frame_needed = 0, uses_anonymous_args = 0
	@ link register save eliminated.
	mov	r0, r2
	movw	r2, #:lower16:.LC69
	ldr	r3, .L1280
	movt	r2, #:upper16:.LC69
	mov	r1, #4096
	b	snprintf
.L1281:
	.align	2
.L1280:
	.word	.LANCHOR1+3320
	.fnend
	.size	rmnet_transports_show, .-rmnet_transports_show
	.align	2
	.syntax unified
	.arm
	.fpu softvfp
	.type	mbim_transports_show, %function
mbim_transports_show:
	.fnstart
	@ args = 0, pretend = 0, frame = 0
	@ frame_needed = 0, uses_anonymous_args = 0
	@ link register save eliminated.
	mov	r0, r2
	movw	r2, #:lower16:.LC69
	ldr	r3, .L1283
	movt	r2, #:upper16:.LC69
	mov	r1, #4096
	b	snprintf
.L1284:
	.align	2
.L1283:
	.word	.LANCHOR1+3372
	.fnend
	.size	mbim_transports_show, .-mbim_transports_show
	.align	2
	.syntax unified
	.arm
	.fpu softvfp
	.type	start_out_transfer, %function
start_out_transfer:
	.fnstart
	@ args = 0, pretend = 0, frame = 0
	@ frame_needed = 0, uses_anonymous_args = 0
	strd	r4, [sp, #-24]!
	.save {r4, r5, r6, r7, r8, lr}
	strd	r6, [sp, #8]
	str	r8, [sp, #16]
	str	lr, [sp, #20]
	ldr	r4, [r0, #8]
	cmp	r4, #0
	beq	.L1286
	ldr	r0, [r4, #80]
	mov	r5, r1
	ldr	r6, [r4, #96]
	ldr	r7, [r1, #24]
	add	r0, r0, #44
	bl	_raw_spin_lock_irq
	mov	r3, #1
	mov	r2, #2
	str	r2, [r5, #4]
	str	r3, [r5, #28]
	ldr	r0, [r4, #80]
	add	r0, r0, #44
	bl	_raw_spin_unlock_irq
	ldr	r3, [r6, #8]
	mov	r1, r7
	mov	r0, r6
	mov	r2, #208
	ldr	r3, [r3, #16]
	blx	r3
	subs	r3, r0, #0
	beq	.L1298
	mov	r2, #0
	cmn	r3, #108
	str	r2, [r5, #4]
	str	r2, [r5, #28]
	beq	.L1298
	cmn	r3, #95
	bne	.L1290
	ldr	r2, [r7, #4]
	cmp	r2, #0
	beq	.L1298
.L1290:
	ldr	r0, [r4, #76]
	movw	r1, #:lower16:.LC76
	movt	r1, #:upper16:.LC76
	ldr	r2, [r6, #4]
	add	r0, r0, #32
	bl	dev_warn
.L1298:
	mov	r0, #1
.L1288:
	ldrd	r4, [sp]
	ldrd	r6, [sp, #8]
	ldr	r8, [sp, #16]
	add	sp, sp, #20
	ldr	pc, [sp], #4
.L1286:
	ldr	r0, [r0]
	movw	r1, #:lower16:.LC74
	mov	r3, #716
	movt	r1, #:upper16:.LC74
	ldr	r2, .L1299
	add	r0, r0, #32
	bl	dev_err
	movw	r0, #:lower16:.LC75
	movw	r1, #461
	movt	r0, #:upper16:.LC75
	bl	warn_slowpath_null
	mov	r0, r4
	b	.L1288
.L1300:
	.align	2
.L1299:
	.word	.LANCHOR2+512
	.fnend
	.size	start_out_transfer, .-start_out_transfer
	.align	2
	.syntax unified
	.arm
	.fpu softvfp
	.type	composite_disconnect, %function
composite_disconnect:
	.fnstart
	@ args = 0, pretend = 0, frame = 0
	@ frame_needed = 0, uses_anonymous_args = 0
	strd	r4, [sp, #-24]!
	.save {r4, r5, r6, r7, r8, lr}
	add	r0, r0, #32
	strd	r6, [sp, #8]
	str	r8, [sp, #16]
	str	lr, [sp, #20]
	bl	dev_get_drvdata
	add	r5, r0, #60
	mov	r8, r0
	mov	r0, r5
	bl	_raw_spin_lock_irqsave
	ldr	r3, [r8, #12]
	mov	r6, r0
	cmp	r3, #0
	beq	.L1302
	ldr	r4, [r3, #36]!
	cmp	r4, r3
	sub	r4, r4, #64
	beq	.L1304
	mov	r7, #0
.L1303:
	ldr	r3, [r4, #40]
	mov	r0, r4
	cmp	r3, #0
	beq	.L1305
	blx	r3
	str	r7, [r4, #72]
.L1319:
	ldr	r3, [r8, #12]
	ldr	r4, [r4, #64]
	add	r3, r3, #36
	cmp	r4, r3
	sub	r4, r4, #64
	bne	.L1303
.L1304:
	movw	r3, #:lower16:.LANCHOR1
	mov	r2, #0
	movt	r3, #:upper16:.LANCHOR1
	ldr	r3, [r3, #2316]
	str	r2, [r8, #12]
	str	r2, [r8, #56]
	ldr	r3, [r3, #32]
	cmp	r3, r2
	beq	.L1308
.L1307:
	mov	r0, r8
	blx	r3
.L1309:
	ldr	r3, [r8, #56]
	cmp	r3, #0
	beq	.L1308
	ldr	r0, [r8]
	movw	r1, #:lower16:.LC77
	movt	r1, #:upper16:.LC77
	add	r0, r0, #32
	bl	_dev_info
	mov	r3, #0
	str	r3, [r8, #56]
.L1308:
	mov	r1, r6
	mov	r0, r5
	ldrd	r4, [sp]
	ldrd	r6, [sp, #8]
	ldr	r8, [sp, #16]
	ldr	lr, [sp, #20]
	add	sp, sp, #24
	b	_raw_spin_unlock_irqrestore
.L1302:
	movw	r3, #:lower16:.LANCHOR1
	movt	r3, #:upper16:.LANCHOR1
	ldr	r3, [r3, #2316]
	ldr	r3, [r3, #32]
	cmp	r3, #0
	bne	.L1307
	b	.L1309
.L1305:
	str	r3, [r4, #72]
	b	.L1319
	.fnend
	.size	composite_disconnect, .-composite_disconnect
	.align	2
	.syntax unified
	.arm
	.fpu softvfp
	.type	rmnet_sdio_response_complete, %function
rmnet_sdio_response_complete:
	.fnstart
	@ args = 0, pretend = 0, frame = 0
	@ frame_needed = 0, uses_anonymous_args = 0
	ldr	r3, [r1, #44]
	cmn	r3, #104
	bxeq	lr
	cmp	r3, #0
	bxeq	lr
	cmn	r3, #108
	bxeq	lr
	mov	ip, r1
	.save {r4, lr}
	str	r4, [sp, #-8]!
	movw	r1, #:lower16:.LC78
	str	lr, [sp, #4]
	ldr	r2, [r0, #4]
	.pad #8
	sub	sp, sp, #8
	ldr	r4, [ip, #32]
	movt	r1, #:upper16:.LC78
	ldr	lr, [ip, #4]
	ldr	ip, [ip, #48]
	ldr	r0, [r4, #76]
	ldr	r0, [r0]
	stm	sp, {ip, lr}
	add	r0, r0, #32
	bl	_dev_info
	add	sp, sp, #8
	@ sp needed
	ldr	r4, [sp]
	add	sp, sp, #4
	ldr	pc, [sp], #4
	.fnend
	.size	rmnet_sdio_response_complete, .-rmnet_sdio_response_complete
	.align	2
	.syntax unified
	.arm
	.fpu softvfp
	.type	rmnet_mux_response_complete, %function
rmnet_mux_response_complete:
	.fnstart
	@ args = 0, pretend = 0, frame = 0
	@ frame_needed = 0, uses_anonymous_args = 0
	ldr	r3, [r1, #44]
	cmn	r3, #104
	bxeq	lr
	cmp	r3, #0
	bxeq	lr
	cmn	r3, #108
	bxeq	lr
	mov	ip, r1
	.save {r4, lr}
	str	r4, [sp, #-8]!
	movw	r1, #:lower16:.LC79
	str	lr, [sp, #4]
	ldr	r2, [r0, #4]
	.pad #8
	sub	sp, sp, #8
	ldr	r4, [ip, #32]
	movt	r1, #:upper16:.LC79
	ldr	lr, [ip, #4]
	ldr	ip, [ip, #48]
	ldr	r0, [r4, #76]
	ldr	r0, [r0]
	stm	sp, {ip, lr}
	add	r0, r0, #32
	bl	_dev_info
	add	sp, sp, #8
	@ sp needed
	ldr	r4, [sp]
	add	sp, sp, #4
	ldr	pc, [sp], #4
	.fnend
	.size	rmnet_mux_response_complete, .-rmnet_mux_response_complete
	.align	2
	.syntax unified
	.arm
	.fpu softvfp
	.type	composite_show_suspended, %function
composite_show_suspended:
	.fnstart
	@ args = 0, pretend = 0, frame = 0
	@ frame_needed = 0, uses_anonymous_args = 0
	.save {r4, lr}
	str	r4, [sp, #-8]!
	mov	r4, r2
	str	lr, [sp, #4]
	bl	dev_get_drvdata
	ldrb	r2, [r0, #16]	@ zero_extendqisi2
	movw	r1, #:lower16:.LC65
	mov	r0, r4
	movt	r1, #:upper16:.LC65
	and	r2, r2, #1
	bl	sprintf
	ldr	r4, [sp]
	add	sp, sp, #4
	mov	r0, #2
	ldr	pc, [sp], #4
	.fnend
	.size	composite_show_suspended, .-composite_show_suspended
	.align	2
	.syntax unified
	.arm
	.fpu softvfp
	.type	midi_alsa_show, %function
midi_alsa_show:
	.fnstart
	@ args = 0, pretend = 0, frame = 0
	@ frame_needed = 0, uses_anonymous_args = 0
	.save {r4, lr}
	str	r4, [sp, #-8]!
	mov	r4, r2
	str	lr, [sp, #4]
	bl	dev_get_drvdata
	ldr	r3, [r0, #4]
	movw	r1, #:lower16:.LC72
	mov	r0, r4
	movt	r1, #:upper16:.LC72
	ldr	r4, [sp]
	ldr	lr, [sp, #4]
	add	sp, sp, #8
	ldrd	r2, [r3]
	b	sprintf
	.fnend
	.size	midi_alsa_show, .-midi_alsa_show
	.align	2
	.syntax unified
	.arm
	.fpu softvfp
	.type	fsg_show_ro, %function
fsg_show_ro:
	.fnstart
	@ args = 0, pretend = 0, frame = 0
	@ frame_needed = 0, uses_anonymous_args = 0
	mov	r3, r0
	.save {r4, lr}
	str	r4, [sp, #-8]!
	mov	r0, r2
	str	lr, [sp, #4]
	ldr	r2, [r3, #-48]
	movw	r1, #:lower16:.LC65
	movt	r1, #:upper16:.LC65
	cmp	r2, #0
	ldrb	r2, [r3, #-24]	@ zero_extendqisi2
	ubfxne	r2, r2, #1, #1
	andeq	r2, r2, #1
	bl	sprintf
	ldr	r4, [sp]
	add	sp, sp, #4
	mov	r0, #2
	ldr	pc, [sp], #4
	.fnend
	.size	fsg_show_ro, .-fsg_show_ro
	.align	2
	.syntax unified
	.arm
	.fpu softvfp
	.type	fsg_show_nofua, %function
fsg_show_nofua:
	.fnstart
	@ args = 0, pretend = 0, frame = 0
	@ frame_needed = 0, uses_anonymous_args = 0
	.save {r4, lr}
	str	r4, [sp, #-8]!
	movw	r1, #:lower16:.LC80
	str	lr, [sp, #4]
	ldrb	r3, [r0, #-24]	@ zero_extendqisi2
	movt	r1, #:upper16:.LC80
	mov	r0, r2
	lsr	r2, r3, #7
	bl	sprintf
	ldr	r4, [sp]
	add	sp, sp, #4
	mov	r0, #2
	ldr	pc, [sp], #4
	.fnend
	.size	fsg_show_nofua, .-fsg_show_nofua
	.align	2
	.syntax unified
	.arm
	.fpu softvfp
	.type	fsg_show_cdrom, %function
fsg_show_cdrom:
	.fnstart
	@ args = 0, pretend = 0, frame = 0
	@ frame_needed = 0, uses_anonymous_args = 0
	.save {r4, lr}
	str	r4, [sp, #-8]!
	movw	r1, #:lower16:.LC65
	str	lr, [sp, #4]
	ldrb	r3, [r0, #-24]	@ zero_extendqisi2
	movt	r1, #:upper16:.LC65
	mov	r0, r2
	ubfx	r2, r3, #3, #1
	bl	sprintf
	ldr	r4, [sp]
	add	sp, sp, #4
	mov	r0, #2
	ldr	pc, [sp], #4
	.fnend
	.size	fsg_show_cdrom, .-fsg_show_cdrom
	.align	2
	.syntax unified
	.arm
	.fpu softvfp
	.type	eth_qc_stop, %function
eth_qc_stop:
	.fnstart
	@ args = 0, pretend = 0, frame = 0
	@ frame_needed = 0, uses_anonymous_args = 0
	strd	r4, [sp, #-24]!
	.save {r4, r5, r6, r7, r8, lr}
	mov	r4, r0
	strd	r6, [sp, #8]
	str	r8, [sp, #16]
	str	lr, [sp, #20]
	ldr	r1, [r0, #576]
	ldr	r6, [r0, #1220]
	cmp	r1, #0
	beq	.L1376
	add	r1, r1, #80
	mov	r0, #0
	bl	_set_bit
.L1367:
	add	r5, r4, #1216
	mov	r0, r5
	bl	_raw_spin_lock_irqsave
	ldr	r3, [r4, #1220]
	mov	r7, r0
	cmp	r3, #0
	beq	.L1366
	ldr	r3, [r6, #108]
	cmp	r3, #0
	beq	.L1366
	mov	r0, r6
	blx	r3
.L1366:
	mov	r0, r5
	mov	r1, r7
	bl	_raw_spin_unlock_irqrestore
	ldrd	r4, [sp]
	mov	r0, #0
	ldrd	r6, [sp, #8]
	ldr	r8, [sp, #16]
	add	sp, sp, #20
	ldr	pc, [sp], #4
.L1376:
	movw	r0, #:lower16:.LC81
	movw	r1, #1847
	movt	r0, #:upper16:.LC81
	bl	warn_slowpath_null
	movw	r0, #:lower16:.LC82
	movt	r0, #:upper16:.LC82
	bl	printk
	b	.L1367
	.fnend
	.size	eth_qc_stop, .-eth_qc_stop
	.align	2
	.syntax unified
	.arm
	.fpu softvfp
	.type	f_midi_transmit, %function
f_midi_transmit:
	.fnstart
	@ args = 0, pretend = 0, frame = 16
	@ frame_needed = 0, uses_anonymous_args = 0
	strd	r4, [sp, #-36]!
	.save {r4, r5, r6, r7, r8, r9, r10, fp, lr}
	strd	r6, [sp, #8]
	strd	r8, [sp, #16]
	strd	r10, [sp, #24]
	str	lr, [sp, #32]
	ldr	r3, [r0, #80]
	.pad #20
	sub	sp, sp, #20
	cmp	r3, #0
	str	r3, [sp, #4]
	beq	.L1377
	cmp	r1, #0
	mov	r10, r0
	mov	r5, r1
	beq	.L1424
.L1379:
	mov	r1, #0
	movw	r3, #:lower16:f_midi_complete
	movt	r3, #:upper16:f_midi_complete
	mov	r2, r1
	add	r7, r10, #92
	add	r9, r10, #220
	str	r1, [r5, #4]
	add	fp, r10, #156
	str	r3, [r5, #28]
.L1411:
	ldr	r4, [r9, #4]!
	ldr	r6, [r7, #4]!
	cmp	r4, #0
	beq	.L1380
	ldr	r3, [r4, #4]
	cmp	r6, #0
	cmpne	r3, #0
	beq	.L1380
	ldr	r1, [r10, #328]
	add	r3, r2, #3
	cmp	r1, r3
	bls	.L1380
.L1410:
	mov	r2, #1
	add	r1, sp, #15
	mov	r0, r6
	bl	snd_rawmidi_transmit
	cmp	r0, #1
	bne	.L1425
	ldrb	r3, [r4, #8]	@ zero_extendqisi2
	ldrb	r1, [sp, #15]	@ zero_extendqisi2
	lsl	r3, r3, #4
	cmp	r1, #247
	uxtb	r3, r3
	bhi	.L1426
	cmp	r1, #239
	bls	.L1384
	sub	r2, r1, #241
	cmp	r2, #6
	ldrls	pc, [pc, r2, asl #2]
	b	.L1385
.L1387:
	.word	.L1386
	.word	.L1388
	.word	.L1386
	.word	.L1392
	.word	.L1392
	.word	.L1390
	.word	.L1391
.L1391:
	ldrb	r2, [r4, #9]	@ zero_extendqisi2
	cmp	r2, #5
	beq	.L1393
	cmp	r2, #6
	bne	.L1427
	ldrb	lr, [r4, #10]	@ zero_extendqisi2
	orr	r3, r3, #7
	mvn	r0, #8
	ldrb	ip, [r4, #11]	@ zero_extendqisi2
	ldr	r2, [r5]
	ldr	r1, [r5, #4]
.L1422:
	strb	r3, [r2, r1]
	add	r3, r2, r1
	add	r1, r1, #4
	strb	lr, [r3, #1]
	strb	ip, [r3, #2]
	strb	r0, [r3, #3]
	str	r1, [r5, #4]
.L1392:
	mov	r3, #0
	strb	r3, [r4, #9]
	ldr	r2, [r5, #4]
.L1383:
	ldr	r3, [r10, #328]
	add	r1, r2, #3
	cmp	r1, r3
	bcc	.L1410
.L1380:
	cmp	fp, r7
	bne	.L1411
.L1429:
	cmp	r2, #0
	beq	.L1412
	ldr	r0, [sp, #4]
	mov	r1, r5
	mov	r2, #32
	ldr	r3, [r0, #8]
	ldr	r3, [r3, #16]
	blx	r3
.L1377:
	add	sp, sp, #20
	@ sp needed
	ldrd	r4, [sp]
	ldrd	r6, [sp, #8]
	ldrd	r8, [sp, #16]
	ldrd	r10, [sp, #24]
	add	sp, sp, #32
	ldr	pc, [sp], #4
.L1388:
	mov	r2, #2
	mvn	r3, #13
	strb	r2, [r4, #9]
	strb	r3, [r4, #10]
	ldr	r2, [r5, #4]
	b	.L1383
.L1386:
	mov	r3, #1
	strb	r3, [r4, #9]
	strb	r1, [r4, #10]
	ldr	r2, [r5, #4]
	b	.L1383
.L1385:
	mov	r2, #5
	mvn	r3, #15
	strb	r2, [r4, #9]
	strb	r3, [r4, #10]
	ldr	r2, [r5, #4]
	b	.L1383
.L1390:
	ldr	r2, [r5]
	orr	r3, r3, #5
	mov	r0, #0
	ldr	r1, [r5, #4]
	mvn	ip, #9
	strb	r3, [r2, r1]
	add	r3, r2, r1
	add	r1, r1, #4
	strb	ip, [r3, #1]
	strb	r0, [r3, #2]
	strb	r0, [r3, #3]
	str	r1, [r5, #4]
	strb	r0, [r4, #9]
	ldr	r2, [r5, #4]
	b	.L1383
.L1426:
	ldm	r5, {r0, r2}
	orr	r3, r3, #15
	mov	ip, #0
	strb	r3, [r0, r2]
	add	r0, r0, r2
	add	r2, r2, #4
	strb	r1, [r0, #1]
	strb	ip, [r0, #2]
	strb	ip, [r0, #3]
	str	r2, [r5, #4]
	b	.L1383
.L1384:
	tst	r1, #128
	bne	.L1428
	ldrb	r2, [r4, #9]	@ zero_extendqisi2
	sub	r2, r2, #1
	cmp	r2, #5
	ldrls	pc, [pc, r2, asl #2]
	b	.L1423
.L1400:
	.word	.L1399
	.word	.L1401
	.word	.L1402
	.word	.L1403
	.word	.L1404
	.word	.L1405
.L1405:
	ldr	r0, [r5]
	orr	r3, r3, #4
	ldr	r8, [r5]
	ldr	r2, [r5, #4]
	ldrb	lr, [r4, #10]	@ zero_extendqisi2
	ldrb	ip, [r4, #11]	@ zero_extendqisi2
	add	r0, r0, r2
	strb	r3, [r8, r2]
	add	r2, r2, #4
	mov	r3, #4
	strb	lr, [r0, #1]
	strb	ip, [r0, #2]
	strb	r1, [r0, #3]
	str	r2, [r5, #4]
	strb	r3, [r4, #9]
.L1423:
	ldr	r2, [r5, #4]
	b	.L1383
.L1404:
	mov	r3, #6
	strb	r3, [r4, #9]
	strb	r1, [r4, #11]
	ldr	r2, [r5, #4]
	b	.L1383
.L1403:
	mov	r3, #5
	strb	r3, [r4, #9]
	strb	r1, [r4, #10]
	ldr	r2, [r5, #4]
	b	.L1383
.L1402:
	ldrb	ip, [r4, #10]	@ zero_extendqisi2
	ldrb	lr, [r4, #11]	@ zero_extendqisi2
	cmp	ip, #239
	orrls	r2, r3, ip, lsr #4
	orrhi	r2, r3, #3
	movls	r3, #2
	movhi	r3, #0
	strb	r3, [r4, #9]
	ldr	r0, [r5]
	ldr	r8, [r5]
	ldr	r3, [r5, #4]
	strb	r2, [r8, r3]
	add	r0, r0, r3
	add	r2, r3, #4
	strb	ip, [r0, #1]
	strb	lr, [r0, #2]
	strb	r1, [r0, #3]
	str	r2, [r5, #4]
	b	.L1383
.L1401:
	mov	r3, #3
	strb	r3, [r4, #9]
	strb	r1, [r4, #11]
	ldr	r2, [r5, #4]
	b	.L1383
.L1399:
	ldrb	ip, [r4, #10]	@ zero_extendqisi2
	mov	lr, #0
	cmp	ip, #239
	movhi	r2, #0
	orrls	r3, r3, ip, lsr #4
	orrhi	r3, r3, #2
	strbhi	r2, [r4, #9]
	ldm	r5, {r0, r2}
	strb	r3, [r0, r2]
	add	r0, r0, r2
	add	r2, r2, #4
	strb	ip, [r0, #1]
	strb	r1, [r0, #2]
	strb	lr, [r0, #3]
	str	r2, [r5, #4]
	b	.L1383
.L1428:
	add	r3, r1, #64
	strb	r1, [r4, #10]
	uxtb	r3, r3
	cmp	r3, #31
	movhi	r3, #2
	strbls	r0, [r4, #9]
	strbhi	r3, [r4, #9]
	ldr	r2, [r5, #4]
	b	.L1383
.L1425:
	mov	r3, #0
	cmp	fp, r7
	str	r3, [r4, #4]
	ldr	r2, [r5, #4]
	bne	.L1411
	b	.L1429
.L1427:
	cmp	r2, #4
	bne	.L1392
	ldr	r2, [r5]
	orr	r3, r3, #5
	mov	r0, #0
	ldr	r1, [r5, #4]
	mvn	ip, #8
	strb	r3, [r2, r1]
	add	r3, r2, r1
	add	r1, r1, #4
	strb	ip, [r3, #1]
	strb	r0, [r3, #2]
	strb	r0, [r3, #3]
	str	r1, [r5, #4]
	b	.L1392
.L1393:
	orr	r3, r3, #6
	mvn	ip, #8
	ldrb	lr, [r4, #10]	@ zero_extendqisi2
	mov	r0, #0
	ldr	r2, [r5]
	ldr	r1, [r5, #4]
	b	.L1422
.L1424:
	mov	r0, r3
	ldr	r1, [r10, #328]
	bl	midi_alloc_ep_req
	subs	r5, r0, #0
	bne	.L1379
	ldr	r0, [r10, #76]
	movw	r1, #:lower16:.LC83
	movt	r1, #:upper16:.LC83
	add	r0, r0, #32
	bl	dev_err
	b	.L1377
.L1412:
	ldr	r0, [r5]
	bl	kfree
	ldr	r0, [sp, #4]
	mov	r1, r5
	ldr	r3, [r0, #8]
	ldr	r3, [r3, #12]
	blx	r3
	b	.L1377
	.fnend
	.size	f_midi_transmit, .-f_midi_transmit
	.align	2
	.syntax unified
	.arm
	.fpu softvfp
	.type	f_midi_in_tasklet, %function
f_midi_in_tasklet:
	.fnstart
	@ args = 0, pretend = 0, frame = 0
	@ frame_needed = 0, uses_anonymous_args = 0
	@ link register save eliminated.
	mov	r1, #0
	b	f_midi_transmit
	.fnend
	.size	f_midi_in_tasklet, .-f_midi_in_tasklet
	.align	2
	.syntax unified
	.arm
	.fpu softvfp
	.type	f_midi_register_card, %function
f_midi_register_card:
	.fnstart
	@ args = 0, pretend = 0, frame = 8
	@ frame_needed = 0, uses_anonymous_args = 0
	strd	r4, [sp, #-24]!
	.save {r4, r5, r6, r7, r8, lr}
	mov	r3, #0
	mov	r4, r0
	strd	r6, [sp, #8]
	str	r8, [sp, #16]
	str	lr, [sp, #20]
	.pad #16
	sub	sp, sp, #16
	ldr	r0, [r0, #320]
	add	r2, sp, #8
	ldr	r1, [r4, #324]
	str	r2, [sp]
	mov	r2, r3
	bl	snd_card_create
	subs	r5, r0, #0
	blt	.L1442
	ldr	r0, [sp, #8]
	mov	r2, r4
	mov	r1, #8192
	ldr	r3, .L1445
	str	r0, [r4, #88]
	bl	snd_device_new
	subs	r5, r0, #0
	blt	.L1443
	movw	r2, #:lower16:.LC86
	movw	r3, #:lower16:.LC87
	ldr	r0, [sp, #8]
	movt	r2, #:upper16:.LC86
	movt	r3, #:upper16:.LC87
	ldm	r2, {r5, lr}
	movw	r1, #:lower16:.LC88
	ldr	ip, [r2, #8]
	movt	r1, #:upper16:.LC88
	ldrh	r7, [r3, #4]
	ldr	r8, [r3]
	ldrb	r3, [r3, #6]	@ zero_extendqisi2
	str	r5, [r0, #20]	@ unaligned
	str	lr, [r0, #24]	@ unaligned
	str	ip, [r0, #28]	@ unaligned
	str	r8, [r0, #36]	@ unaligned
	strh	r7, [r0, #40]	@ unaligned
	strb	r3, [r0, #42]
	str	r5, [r0, #68]	@ unaligned
	str	lr, [r0, #72]	@ unaligned
	str	ip, [r0, #76]	@ unaligned
	bl	snd_component_add
	ldr	r0, [sp, #8]
	add	ip, sp, #12
	mov	r2, #0
	ldr	r1, [r4, #312]
	ldr	r3, [r4, #316]
	stm	sp, {r1, ip}
	add	r1, r0, #68
	bl	snd_rawmidi_new
	subs	r5, r0, #0
	blt	.L1444
	ldr	r1, [sp, #8]
	ldr	r5, [sp, #12]
	add	r1, r1, #36
	add	r0, r5, #84
	str	r5, [r4, #92]
	bl	strcpy
	mov	r3, #7
	mov	r0, r5
	ldr	r2, .L1445+4
	mov	r1, #0
	str	r3, [r5, #16]
	str	r4, [r5, #200]
	bl	snd_rawmidi_set_ops
	ldr	r0, [sp, #12]
	mov	r1, #1
	ldr	r2, .L1445+8
	bl	snd_rawmidi_set_ops
	ldr	r3, [r4, #76]
	ldr	r2, [sp, #8]
	add	r3, r3, #32
	mov	r0, r2
	str	r3, [r2, #500]
	bl	snd_card_register
	subs	r5, r0, #0
	movge	r5, #0
	bge	.L1431
	ldr	r0, [r4, #76]
	movw	r1, #:lower16:.LC90
	movt	r1, #:upper16:.LC90
	add	r0, r0, #32
	bl	dev_err
	b	.L1433
.L1443:
	ldr	r0, [r4, #76]
	movw	r1, #:lower16:.LC85
	mov	r2, r5
	movt	r1, #:upper16:.LC85
	add	r0, r0, #32
	bl	dev_err
.L1433:
	ldr	r0, [r4, #88]
	cmp	r0, #0
	beq	.L1431
	bl	snd_card_free
	mov	r3, #0
	str	r3, [r4, #88]
.L1431:
	mov	r0, r5
	add	sp, sp, #16
	@ sp needed
	ldrd	r4, [sp]
	ldrd	r6, [sp, #8]
	ldr	r8, [sp, #16]
	add	sp, sp, #20
	ldr	pc, [sp], #4
.L1442:
	ldr	r0, [r4, #76]
	movw	r1, #:lower16:.LC84
	movt	r1, #:upper16:.LC84
	add	r0, r0, #32
	bl	dev_err
	b	.L1433
.L1444:
	ldr	r0, [r4, #76]
	movw	r1, #:lower16:.LC89
	mov	r2, r5
	movt	r1, #:upper16:.LC89
	add	r0, r0, #32
	bl	dev_err
	b	.L1433
.L1446:
	.align	2
.L1445:
	.word	.LANCHOR0+244
	.word	.LANCHOR0+256
	.word	.LANCHOR0+272
	.fnend
	.size	f_midi_register_card, .-f_midi_register_card
	.align	2
	.syntax unified
	.arm
	.fpu softvfp
	.type	f_midi_out_trigger, %function
f_midi_out_trigger:
	.fnstart
	@ args = 0, pretend = 0, frame = 0
	@ frame_needed = 0, uses_anonymous_args = 0
	@ link register save eliminated.
	ldr	r3, [r0, #28]
	cmp	r1, #0
	ldr	r0, [r0, #12]
	ldr	r1, [r3, #200]
	add	r1, r1, #288
	bne	.L1449
	b	_clear_bit
.L1449:
	b	_set_bit
	.fnend
	.size	f_midi_out_trigger, .-f_midi_out_trigger
	.align	2
	.syntax unified
	.arm
	.fpu softvfp
	.type	gctrl_disconnect_w, %function
gctrl_disconnect_w:
	.fnstart
	@ args = 0, pretend = 0, frame = 0
	@ frame_needed = 0, uses_anonymous_args = 0
	@ link register save eliminated.
	ldr	r3, [r0, #52]
	tst	r3, #1
	bne	.L1452
	bx	lr
.L1452:
	add	r1, r0, #52
	mov	r0, #0
	b	_clear_bit
	.fnend
	.size	gctrl_disconnect_w, .-gctrl_disconnect_w
	.align	2
	.syntax unified
	.arm
	.fpu softvfp
	.type	ghsic_data_disconnect_w, %function
ghsic_data_disconnect_w:
	.fnstart
	@ args = 0, pretend = 0, frame = 0
	@ frame_needed = 0, uses_anonymous_args = 0
	@ link register save eliminated.
	ldr	r3, [r0, #76]
	tst	r3, #1
	bne	.L1455
	bx	lr
.L1455:
	add	r1, r0, #76
	mov	r0, #0
	b	_clear_bit
	.fnend
	.size	ghsic_data_disconnect_w, .-ghsic_data_disconnect_w
	.align	2
	.syntax unified
	.arm
	.fpu softvfp
	.type	ghsuart_ctrl_remove, %function
ghsuart_ctrl_remove:
	.fnstart
	@ args = 0, pretend = 0, frame = 0
	@ frame_needed = 0, uses_anonymous_args = 0
	strd	r4, [sp, #-16]!
	.save {r4, r5, r6, lr}
	movw	r2, #:lower16:.LANCHOR1
	mov	r1, #84
	str	r6, [sp, #8]
	movt	r2, #:upper16:.LANCHOR1
	str	lr, [sp, #12]
	ldr	r3, [r0, #4]
	mla	r3, r1, r3, r2
	ldr	r4, [r3, #1880]
	add	r6, r4, #8
	add	r5, r4, #88
	mov	r0, r6
	bl	_raw_spin_lock_irqsave
	ldr	r4, [r4, #12]
	mov	r1, r0
	mov	r0, r6
	cmp	r4, #0
	beq	.L1464
	bl	_raw_spin_unlock_irqrestore
	ldr	r3, [r4, #96]
	cmp	r3, #0
	beq	.L1459
	mov	r0, r4
	blx	r3
.L1459:
	mov	r1, r5
	mov	r0, #0
	bl	_clear_bit
	mov	r1, r5
	mov	r0, #2
	bl	_clear_bit
.L1458:
	mov	r1, r5
	mov	r0, #1
	bl	_clear_bit
	ldrd	r4, [sp]
	mov	r0, #0
	ldr	r6, [sp, #8]
	add	sp, sp, #12
	ldr	pc, [sp], #4
.L1464:
	bl	_raw_spin_unlock_irqrestore
	b	.L1458
	.fnend
	.size	ghsuart_ctrl_remove, .-ghsuart_ctrl_remove
	.align	2
	.syntax unified
	.arm
	.fpu softvfp
	.type	f_midi_in_trigger, %function
f_midi_in_trigger:
	.fnstart
	@ args = 0, pretend = 0, frame = 0
	@ frame_needed = 0, uses_anonymous_args = 0
	ldr	r3, [r0, #12]
	ldr	r2, [r0, #28]
	add	r3, r3, #56
	ldr	r2, [r2, #200]
	ldr	r3, [r2, r3, lsl #2]
	cmp	r3, #0
	bxeq	lr
	cmp	r1, #0
	str	r1, [r3, #4]
	bxeq	lr
	.save {r4, lr}
	str	r4, [sp, #-8]!
	add	r1, r2, #296
	mov	r0, #0
	add	r4, r2, #292
	str	lr, [sp, #4]
	bl	_test_and_set_bit
	cmp	r0, #0
	beq	.L1476
	ldr	r4, [sp]
	add	sp, sp, #4
	ldr	pc, [sp], #4
.L1476:
	mov	r0, r4
	ldr	r4, [sp]
	ldr	lr, [sp, #4]
	add	sp, sp, #8
	b	__tasklet_hi_schedule
	.fnend
	.size	f_midi_in_trigger, .-f_midi_in_trigger
	.align	2
	.syntax unified
	.arm
	.fpu softvfp
	.type	ghsuart_send_cpkt_tomodem, %function
ghsuart_send_cpkt_tomodem:
	.fnstart
	@ args = 0, pretend = 0, frame = 0
	@ frame_needed = 0, uses_anonymous_args = 0
	movw	r3, #:lower16:.LANCHOR1
	strd	r4, [sp, #-24]!
	.save {r4, r5, r6, r7, r8, lr}
	mov	r5, r1
	movt	r3, #:upper16:.LANCHOR1
	strd	r6, [sp, #8]
	mov	ip, r0
	str	r8, [sp, #16]
	str	lr, [sp, #20]
	ldr	r1, [r3, #1876]
	cmp	r0, r1
	bcs	.L1488
	mov	r1, #84
	mla	r3, r1, r0, r3
	ldr	r4, [r3, #1880]
	cmp	r4, #0
	beq	.L1489
	ldr	r0, [r4, #88]
	ubfx	r0, r0, #2, #1
	cmp	r0, #0
	beq	.L1490
	mov	r1, #32
	mov	r0, r2
	mov	r6, r2
	bl	__kmalloc
	subs	r7, r0, #0
	mvneq	r0, #11
	beq	.L1477
	mov	r2, r6
	mov	r1, r5
	bl	memcpy
	ldr	r1, .L1492
	ldr	r0, .L1492+4
	bl	___ratelimit
	cmp	r0, #0
	bne	.L1491
.L1482:
	ldr	r3, [r4, #104]
	mov	r0, r7
	add	r3, r3, #1
	str	r3, [r4, #104]
	bl	kfree
	mvn	r0, #18
.L1477:
	ldrd	r4, [sp]
	ldrd	r6, [sp, #8]
	ldr	r8, [sp, #16]
	add	sp, sp, #20
	ldr	pc, [sp], #4
.L1490:
	ldr	r3, [r4, #104]
	add	r3, r3, #1
	str	r3, [r4, #104]
	b	.L1477
.L1489:
	movw	r0, #:lower16:.LC15
	ldr	r1, .L1492
	movt	r0, #:upper16:.LC15
	bl	printk
	mvn	r0, #18
	b	.L1477
.L1488:
	movw	r0, #:lower16:.LC19
	mov	r2, ip
	ldr	r1, .L1492
	movt	r0, #:upper16:.LC19
	bl	printk
	mvn	r0, #18
	b	.L1477
.L1491:
	movw	r0, #:lower16:.LC91
	mvn	r2, #18
	ldr	r1, .L1492
	movt	r0, #:upper16:.LC91
	bl	printk
	b	.L1482
.L1493:
	.align	2
.L1492:
	.word	.LANCHOR2+532
	.word	.LANCHOR0+288
	.fnend
	.size	ghsuart_send_cpkt_tomodem, .-ghsuart_send_cpkt_tomodem
	.align	2
	.syntax unified
	.arm
	.fpu softvfp
	.type	rmnet_smd_disable, %function
rmnet_smd_disable:
	.fnstart
	@ args = 0, pretend = 0, frame = 0
	@ frame_needed = 0, uses_anonymous_args = 0
	.save {r4, lr}
	str	r4, [sp, #-8]!
	mov	r4, r0
	mov	r3, #0
	str	lr, [sp, #4]
	ldr	r0, [r0, #88]
	str	r3, [r4, #160]
	ldr	r3, [r0, #8]
	ldr	r2, [r3, #36]
	cmp	r2, #0
	beq	.L1495
	blx	r2
	ldr	r0, [r4, #88]
	ldr	r3, [r0, #8]
.L1495:
	ldr	r3, [r3, #4]
	blx	r3
	ldr	r0, [r4, #80]
	ldr	r3, [r0, #8]
	ldr	r2, [r3, #36]
	cmp	r2, #0
	beq	.L1496
	blx	r2
	ldr	r0, [r4, #80]
	ldr	r3, [r0, #8]
.L1496:
	ldr	r3, [r3, #4]
	blx	r3
	ldr	r0, [r4, #84]
	ldr	r3, [r0, #8]
	ldr	r2, [r3, #36]
	cmp	r2, #0
	beq	.L1497
	blx	r2
	ldr	r0, [r4, #84]
	ldr	r3, [r0, #8]
.L1497:
	ldr	r3, [r3, #4]
	blx	r3
	ldr	lr, [sp, #4]
	add	r1, r4, #400
	ldr	r0, [r4, #380]
	ldr	r4, [sp]
	add	sp, sp, #8
	b	queue_work
	.fnend
	.size	rmnet_smd_disable, .-rmnet_smd_disable
	.align	2
	.syntax unified
	.arm
	.fpu softvfp
	.type	rmnet_smd_ch_probe, %function
rmnet_smd_ch_probe:
	.fnstart
	@ args = 0, pretend = 0, frame = 0
	@ frame_needed = 0, uses_anonymous_args = 0
	movw	r3, #:lower16:.LANCHOR1
	.save {r4, lr}
	str	r4, [sp, #-8]!
	movt	r3, #:upper16:.LANCHOR1
	str	lr, [sp, #4]
	ldr	r3, [r3, #3424]
	ldr	r0, [r3, #380]
	add	r1, r3, #384
	bl	queue_work
	ldr	r4, [sp]
	add	sp, sp, #4
	mov	r0, #0
	ldr	pc, [sp], #4
	.fnend
	.size	rmnet_smd_ch_probe, .-rmnet_smd_ch_probe
	.align	2
	.syntax unified
	.arm
	.fpu softvfp
	.type	rmnet_sdio_setup, %function
rmnet_sdio_setup:
	.fnstart
	@ args = 0, pretend = 0, frame = 8
	@ frame_needed = 0, uses_anonymous_args = 0
	strd	r4, [sp, #-36]!
	.save {r4, r5, r6, r7, r8, r9, r10, fp, lr}
	strd	r6, [sp, #8]
	strd	r8, [sp, #16]
	strd	r10, [sp, #24]
	str	lr, [sp, #32]
	ldr	r2, [r0, #20]
	.pad #28
	sub	sp, sp, #28
	ldr	r3, [r0, #184]
	ldrh	r8, [r1, #2]	@ unaligned
	ldrh	r6, [r1, #6]	@ unaligned
	ldr	r7, [r2, #24]
	cmp	r3, #0
	ldr	r5, [r7, #4]
	beq	.L1519
	ldrh	r3, [r1]	@ unaligned
	movw	r2, #8482
	mov	r9, r1
	mov	r4, r0
	rev16	r3, r3
	uxth	r3, r3
	cmp	r3, r2
	beq	.L1512
	movw	r2, #41217
	cmp	r3, r2
	beq	.L1513
	cmp	r3, #8448
	beq	.L1524
.L1521:
	mvn	r4, #94
.L1510:
	mov	r0, r4
	add	sp, sp, #28
	@ sp needed
	ldrd	r4, [sp]
	ldrd	r6, [sp, #8]
	ldrd	r8, [sp, #16]
	ldrd	r10, [sp, #24]
	add	sp, sp, #32
	ldr	pc, [sp], #4
.L1513:
	cmp	r8, #0
	bne	.L1521
	ldrh	r3, [r1, #4]	@ unaligned
	add	r10, r0, #180
	mov	r0, r10
	str	r3, [sp, #20]
	bl	_raw_spin_lock
	mov	r2, r4
	ldr	fp, [r2, #112]!
	cmp	fp, r2
	beq	.L1525
	ldm	fp, {r1, r2}
	mov	lr, #256
	mov	ip, #512
	mov	r0, r10
	mov	r9, fp
	str	r2, [r1, #4]
	str	r1, [r2]
	str	lr, [fp]
	str	ip, [fp, #4]
	ldr	r2, [r4, #120]
	sub	r2, r2, #1
	str	r2, [r4, #120]
	bl	_raw_spin_unlock
	ldmdb	fp, {r1, r8}
	ldr	r0, [r5]
	cmp	r6, r8
	movcc	r8, r6
	mov	r2, r8
	bl	memcpy
	movw	r3, #:lower16:rmnet_sdio_response_complete
	str	r4, [r5, #32]
	movt	r3, #:upper16:rmnet_sdio_response_complete
	str	r3, [r5, #28]
	ldr	r0, [r9, #-8]!
	bl	kfree
	mov	r0, r9
	bl	kfree
	ldr	r3, [r4, #356]
	cmp	r8, r6
	movge	r6, #0
	movlt	r6, #1
	add	r3, r3, #1
	str	r3, [r4, #356]
.L1515:
	ldrb	r3, [r5, #26]	@ zero_extendqisi2
	str	r8, [r5, #4]
	mov	r1, r5
	mov	r2, #32
	bfi	r3, r6, #1, #1
	strb	r3, [r5, #26]
	ldr	r3, [r7]
	ldr	r0, [r3, #4]
	ldr	r3, [r0, #8]
	ldr	r3, [r3, #16]
	blx	r3
	subs	r4, r0, #0
	bge	.L1510
	ldr	r0, [r7]
	movw	r1, #:lower16:.LC51
	mov	r2, r4
	movt	r1, #:upper16:.LC51
	add	r0, r0, #32
	bl	dev_err
	b	.L1510
.L1524:
	movw	r3, #:lower16:rmnet_sdio_command_complete
	mov	r8, r6
	str	r0, [r5, #32]
	movt	r3, #:upper16:rmnet_sdio_command_complete
	mov	r6, #0
	str	r3, [r5, #28]
	b	.L1515
.L1512:
	ldr	r3, [r0, #320]
	tst	r8, #1
	add	r1, r0, #324
	mov	r8, #0
	ldr	r0, [r0, #192]
	orrne	r3, r3, #2
	biceq	r3, r3, #2
	str	r3, [r4, #320]
	bl	queue_work
	subs	r6, r6, r8
	movne	r6, #1
	b	.L1515
.L1519:
	mvn	r4, #106
	b	.L1510
.L1525:
	ldr	r0, [r7]
	movw	r1, #:lower16:.LC92
	str	r8, [sp]
	ldr	r2, [sp, #20]
	movt	r1, #:upper16:.LC92
	mvn	r4, #94
	ldrb	r3, [r9, #1]	@ zero_extendqisi2
	add	r0, r0, #32
	str	r2, [sp, #4]
	ldrb	r2, [r9]	@ zero_extendqisi2
	str	r6, [sp, #8]
	bl	_dev_info
	mov	r0, r10
	bl	_raw_spin_unlock
	b	.L1510
	.fnend
	.size	rmnet_sdio_setup, .-rmnet_sdio_setup
	.align	2
	.syntax unified
	.arm
	.fpu softvfp
	.type	gs_unthrottle, %function
gs_unthrottle:
	.fnstart
	@ args = 0, pretend = 0, frame = 0
	@ frame_needed = 0, uses_anonymous_args = 0
	strd	r4, [sp, #-16]!
	.save {r4, r5, r6, lr}
	str	r6, [sp, #8]
	str	lr, [sp, #12]
	ldr	r4, [r0, #280]
	cmp	r4, #0
	beq	.L1526
	mov	r0, r4
	bl	_raw_spin_lock_irqsave
	ldr	r3, [r4, #4]
	mov	r5, r0
	cmp	r3, #0
	beq	.L1528
	movw	r3, #:lower16:.LANCHOR1
	add	r1, r4, #60
	movt	r3, #:upper16:.LANCHOR1
	ldr	r0, [r3, #3428]
	bl	queue_work
.L1528:
	mov	r1, r5
	mov	r0, r4
	ldrd	r4, [sp]
	ldr	r6, [sp, #8]
	ldr	lr, [sp, #12]
	add	sp, sp, #16
	b	_raw_spin_unlock_irqrestore
.L1526:
	ldrd	r4, [sp]
	ldr	r6, [sp, #8]
	add	sp, sp, #12
	ldr	pc, [sp], #4
	.fnend
	.size	gs_unthrottle, .-gs_unthrottle
	.align	2
	.syntax unified
	.arm
	.fpu softvfp
	.type	gs_read_complete, %function
gs_read_complete:
	.fnstart
	@ args = 0, pretend = 0, frame = 0
	@ frame_needed = 0, uses_anonymous_args = 0
	strd	r4, [sp, #-24]!
	.save {r4, r5, r6, r7, r8, lr}
	mov	r5, r1
	strd	r6, [sp, #8]
	str	r8, [sp, #16]
	str	lr, [sp, #20]
	ldr	r4, [r0]
	mov	r0, r4
	add	r7, r4, #48
	bl	_raw_spin_lock_irqsave
	ldr	r1, [r5, #48]
	add	lr, r5, #36
	movw	r2, #:lower16:.LANCHOR1
	ldr	r3, [r4, #128]
	movt	r2, #:upper16:.LANCHOR1
	mov	r6, r0
	ldr	ip, [r4, #52]
	str	lr, [r4, #52]
	ldr	r0, [r2, #3428]
	add	r3, r3, r1
	add	r1, r4, #60
	str	r3, [r4, #128]
	str	r7, [r5, #36]
	str	ip, [r5, #40]
	str	lr, [ip]
	bl	queue_work
	ldr	r8, [sp, #16]
	mov	r1, r6
	mov	r0, r4
	ldrd	r4, [sp]
	ldrd	r6, [sp, #8]
	ldr	lr, [sp, #20]
	add	sp, sp, #24
	b	_raw_spin_unlock_irqrestore
	.fnend
	.size	gs_read_complete, .-gs_read_complete
	.align	2
	.global	gsdio_write_complete
	.syntax unified
	.arm
	.fpu softvfp
	.type	gsdio_write_complete, %function
gsdio_write_complete:
	.fnstart
	@ args = 0, pretend = 0, frame = 0
	@ frame_needed = 0, uses_anonymous_args = 0
	strd	r4, [sp, #-24]!
	.save {r4, r5, r6, r7, r8, lr}
	strd	r6, [sp, #8]
	str	r8, [sp, #16]
	str	lr, [sp, #20]
	ldr	r4, [r0]
	.pad #8
	sub	sp, sp, #8
	cmp	r4, #0
	beq	.L1547
	add	r7, r4, #4
	mov	r6, r0
	mov	r0, r7
	mov	r5, r1
	bl	_raw_spin_lock_irqsave
	mov	r3, r4
	add	r2, r5, #36
	ldr	r1, [r3, #52]!
	mov	r8, r0
	str	r2, [r1, #4]
	str	r1, [r5, #36]
	str	r3, [r5, #40]
	ldr	r3, [r4, #76]
	str	r2, [r4, #52]
	add	r3, r3, #1
	str	r3, [r4, #76]
	ldr	r3, [r5, #44]
	cmn	r3, #108
	beq	.L1538
	cmp	r3, #0
	bne	.L1548
.L1539:
	movw	r3, #:lower16:.LANCHOR1
	add	r1, r4, #60
	movt	r3, #:upper16:.LANCHOR1
	ldr	r0, [r3, #3432]
	bl	queue_work
.L1538:
	mov	r1, r8
	mov	r0, r7
	add	sp, sp, #8
	@ sp needed
	ldrd	r4, [sp]
	ldrd	r6, [sp, #8]
	ldr	r8, [sp, #16]
	ldr	lr, [sp, #20]
	add	sp, sp, #24
	b	_raw_spin_unlock_irqrestore
.L1548:
	ldr	ip, [r6, #4]
	movw	r0, #:lower16:.LC93
	mov	r2, r4
	ldr	r1, .L1549
	movt	r0, #:upper16:.LC93
	str	ip, [sp]
	str	r3, [sp, #4]
	ldr	r3, [r4]
	bl	printk
	b	.L1539
.L1547:
	ldr	r1, .L1549
	movw	r0, #:lower16:.LC15
	movt	r0, #:upper16:.LC15
	add	sp, sp, #8
	@ sp needed
	ldrd	r4, [sp]
	ldrd	r6, [sp, #8]
	ldr	r8, [sp, #16]
	ldr	lr, [sp, #20]
	add	sp, sp, #24
	b	printk
.L1550:
	.align	2
.L1549:
	.word	.LANCHOR2+560
	.fnend
	.size	gsdio_write_complete, .-gsdio_write_complete
	.align	2
	.global	gsdio_ctrl_notify_modem
	.syntax unified
	.arm
	.fpu softvfp
	.type	gsdio_ctrl_notify_modem, %function
gsdio_ctrl_notify_modem:
	.fnstart
	@ args = 0, pretend = 0, frame = 0
	@ frame_needed = 0, uses_anonymous_args = 0
	strd	r4, [sp, #-16]!
	.save {r4, r5, r6, lr}
	movw	r4, #:lower16:.LANCHOR1
	movt	r4, #:upper16:.LANCHOR1
	str	r6, [sp, #8]
	ldr	ip, [r4]
	str	lr, [sp, #12]
	cmp	r1, ip
	bcs	.L1564
	cmp	r0, #0
	beq	.L1565
	mov	ip, #108
	lsl	r2, r2, #1
	mla	r1, ip, r1, r4
	and	r2, r2, #2
	ldr	r5, [r1, #28]
	ldr	r1, [r5, #176]
	cmp	r1, r2
	beq	.L1551
	ldr	r1, [r5, #108]
	str	r2, [r5, #176]
	cmp	r1, #0
	beq	.L1566
	cmp	r2, #0
	beq	.L1556
	ldr	r3, [r0, #128]
	cmp	r3, #0
	beq	.L1556
	ldr	r1, [r5, #172]
	blx	r3
.L1556:
	add	r1, r5, #80
	ldr	r0, [r4, #3432]
	ldrd	r4, [sp]
	ldr	r6, [sp, #8]
	ldr	lr, [sp, #12]
	add	sp, sp, #16
	b	queue_work
.L1551:
	ldrd	r4, [sp]
	ldr	r6, [sp, #8]
	add	sp, sp, #12
	ldr	pc, [sp], #4
.L1565:
	movw	r0, #:lower16:.LC95
	ldrd	r4, [sp]
	ldr	r6, [sp, #8]
	movt	r0, #:upper16:.LC95
	ldr	lr, [sp, #12]
	add	sp, sp, #16
	ldr	r1, .L1567
	b	printk
.L1564:
	movw	r0, #:lower16:.LC94
	mov	r2, r1
	ldrd	r4, [sp]
	ldr	r6, [sp, #8]
	movt	r0, #:upper16:.LC94
	ldr	lr, [sp, #12]
	add	sp, sp, #16
	ldr	r1, .L1567
	b	printk
.L1566:
	movw	r0, #:lower16:.LC96
	mov	r2, r5
	ldr	r3, [r5]
	ldr	r1, .L1567
	movt	r0, #:upper16:.LC96
	ldrd	r4, [sp]
	ldr	r6, [sp, #8]
	ldr	lr, [sp, #12]
	add	sp, sp, #16
	b	printk
.L1568:
	.align	2
.L1567:
	.word	.LANCHOR2+584
	.fnend
	.size	gsdio_ctrl_notify_modem, .-gsdio_ctrl_notify_modem
	.align	2
	.syntax unified
	.arm
	.fpu softvfp
	.type	gsmd_write_complete, %function
gsmd_write_complete:
	.fnstart
	@ args = 0, pretend = 0, frame = 0
	@ frame_needed = 0, uses_anonymous_args = 0
	strd	r4, [sp, #-20]!
	.save {r4, r5, r6, r7, lr}
	strd	r6, [sp, #8]
	str	lr, [sp, #16]
	ldr	r7, [r0]
	.pad #12
	sub	sp, sp, #12
	cmp	r7, #0
	beq	.L1581
	add	r6, r7, #4
	mov	r5, r0
	mov	r0, r6
	mov	r4, r1
	bl	_raw_spin_lock
	ldr	r3, [r7, #72]
	ldr	r3, [r3, #8]
	tst	r3, #1
	beq	.L1571
	ldr	r3, [r4, #44]
	cmn	r3, #108
	beq	.L1571
	cmp	r3, #0
	bne	.L1582
.L1573:
	mov	r3, r7
	add	ip, r4, #36
	ldr	lr, [r3, #44]!
	movw	r2, #:lower16:.LANCHOR1
	add	r1, r7, #52
	movt	r2, #:upper16:.LANCHOR1
	ldr	r0, [r2, #3436]
	str	ip, [lr, #4]
	str	lr, [r4, #36]
	str	r3, [r4, #40]
	str	ip, [r7, #44]
	bl	queue_work
	mov	r0, r6
	add	sp, sp, #12
	@ sp needed
	ldrd	r4, [sp]
	ldrd	r6, [sp, #8]
	ldr	lr, [sp, #16]
	add	sp, sp, #20
	b	_raw_spin_unlock
.L1571:
	mov	r0, r6
	bl	_raw_spin_unlock
	ldr	r0, [r4]
	bl	kfree
	ldr	r3, [r5, #8]
	mov	r1, r4
	mov	r0, r5
	ldr	r3, [r3, #12]
	add	sp, sp, #12
	@ sp needed
	ldrd	r4, [sp]
	ldrd	r6, [sp, #8]
	ldr	lr, [sp, #16]
	add	sp, sp, #20
	bx	r3	@ indirect register sibling call
.L1581:
	ldr	r1, .L1583
	movw	r0, #:lower16:.LC15
	movt	r0, #:upper16:.LC15
	add	sp, sp, #12
	@ sp needed
	ldrd	r4, [sp]
	ldrd	r6, [sp, #8]
	ldr	lr, [sp, #16]
	add	sp, sp, #20
	b	printk
.L1582:
	ldr	ip, [r5, #4]
	movw	r0, #:lower16:.LC93
	mov	r2, r7
	ldr	r1, .L1583
	movt	r0, #:upper16:.LC93
	str	ip, [sp]
	str	r3, [sp, #4]
	ldr	r3, [r7]
	bl	printk
	b	.L1573
.L1584:
	.align	2
.L1583:
	.word	.LANCHOR2+608
	.fnend
	.size	gsmd_write_complete, .-gsmd_write_complete
	.align	2
	.syntax unified
	.arm
	.fpu softvfp
	.type	ghsuart_ctrl_probe, %function
ghsuart_ctrl_probe:
	.fnstart
	@ args = 0, pretend = 0, frame = 0
	@ frame_needed = 0, uses_anonymous_args = 0
	strd	r4, [sp, #-16]!
	.save {r4, r5, r6, lr}
	movw	r2, #:lower16:.LANCHOR1
	mov	r1, #84
	str	r6, [sp, #8]
	movt	r2, #:upper16:.LANCHOR1
	str	lr, [sp, #12]
	ldr	r3, [r0, #4]
	mov	r0, #1
	mla	r3, r1, r3, r2
	ldr	r4, [r3, #1880]
	add	r1, r4, #88
	add	r5, r4, #8
	bl	_set_bit
	mov	r0, r5
	bl	_raw_spin_lock_irqsave
	ldr	r3, [r4, #12]
	mov	r6, r0
	cmp	r3, #0
	beq	.L1586
	add	r1, r4, #36
	ldr	r0, [r4, #32]
	bl	queue_work
.L1586:
	mov	r0, r5
	mov	r1, r6
	bl	_raw_spin_unlock_irqrestore
	ldrd	r4, [sp]
	mov	r0, #0
	ldr	r6, [sp, #8]
	add	sp, sp, #12
	ldr	pc, [sp], #4
	.fnend
	.size	ghsuart_ctrl_probe, .-ghsuart_ctrl_probe
	.align	2
	.syntax unified
	.arm
	.fpu softvfp
	.type	ghsuart_data_probe, %function
ghsuart_data_probe:
	.fnstart
	@ args = 0, pretend = 0, frame = 0
	@ frame_needed = 0, uses_anonymous_args = 0
	movw	r2, #:lower16:.LANCHOR1
	.save {r4, lr}
	str	r4, [sp, #-8]!
	movt	r2, #:upper16:.LANCHOR1
	str	lr, [sp, #4]
	ldr	r3, [r0, #4]
	ldr	r1, [r2, #2048]
	cmp	r1, r3
	bls	.L1596
	mov	r1, #84
	mov	r0, #1
	mla	r2, r1, r3, r2
	ldr	r4, [r2, #2052]
	add	r1, r4, #188
	bl	_set_bit
	ldr	r0, [r4, #4]
	cmp	r0, #0
	beq	.L1591
	add	r1, r4, #112
	ldr	r0, [r4, #108]
	bl	queue_work
	mov	r0, #0
.L1591:
	ldr	r4, [sp]
	add	sp, sp, #4
	ldr	pc, [sp], #4
.L1596:
	movw	r0, #:lower16:.LC97
	mov	r2, r3
	ldr	r1, .L1597
	movt	r0, #:upper16:.LC97
	bl	printk
	mvn	r0, #21
	b	.L1591
.L1598:
	.align	2
.L1597:
	.word	.LANCHOR2+628
	.fnend
	.size	ghsuart_data_probe, .-ghsuart_data_probe
	.align	2
	.syntax unified
	.arm
	.fpu softvfp
	.type	ecm_qc_suspend, %function
ecm_qc_suspend:
	.fnstart
	@ args = 0, pretend = 0, frame = 0
	@ frame_needed = 0, uses_anonymous_args = 0
	@ link register save eliminated.
	movw	r3, #:lower16:.LANCHOR1
	movt	r3, #:upper16:.LANCHOR1
	ldr	r1, [r3, #3440]
	ldr	r0, [r3, #3444]
	add	r1, r1, #200
	b	queue_work
	.fnend
	.size	ecm_qc_suspend, .-ecm_qc_suspend
	.align	2
	.syntax unified
	.arm
	.fpu softvfp
	.type	mbim_suspend, %function
mbim_suspend:
	.fnstart
	@ args = 0, pretend = 0, frame = 0
	@ frame_needed = 0, uses_anonymous_args = 0
	movw	r0, #:lower16:.LC98
	.save {r4, lr}
	str	r4, [sp, #-8]!
	ldr	r1, .L1602
	movt	r0, #:upper16:.LC98
	str	lr, [sp, #4]
	bl	printk
	movw	r3, #:lower16:.LANCHOR1
	ldr	r4, [sp]
	movt	r3, #:upper16:.LANCHOR1
	ldr	lr, [sp, #4]
	add	sp, sp, #8
	ldr	r1, [r3, #3440]
	ldr	r0, [r3, #3444]
	add	r1, r1, #200
	b	queue_work
.L1603:
	.align	2
.L1602:
	.word	.LANCHOR2+648
	.fnend
	.size	mbim_suspend, .-mbim_suspend
	.align	2
	.syntax unified
	.arm
	.fpu softvfp
	.type	ecm_qc_resume, %function
ecm_qc_resume:
	.fnstart
	@ args = 0, pretend = 0, frame = 0
	@ frame_needed = 0, uses_anonymous_args = 0
	@ link register save eliminated.
	movw	r3, #:lower16:.LANCHOR1
	movt	r3, #:upper16:.LANCHOR1
	ldr	r1, [r3, #3440]
	ldr	r0, [r3, #3444]
	add	r1, r1, #216
	b	queue_work
	.fnend
	.size	ecm_qc_resume, .-ecm_qc_resume
	.align	2
	.syntax unified
	.arm
	.fpu softvfp
	.type	mbim_resume, %function
mbim_resume:
	.fnstart
	@ args = 0, pretend = 0, frame = 0
	@ frame_needed = 0, uses_anonymous_args = 0
	movw	r0, #:lower16:.LC99
	.save {r4, lr}
	str	r4, [sp, #-8]!
	ldr	r1, .L1607
	movt	r0, #:upper16:.LC99
	str	lr, [sp, #4]
	bl	printk
	movw	r3, #:lower16:.LANCHOR1
	ldr	r4, [sp]
	movt	r3, #:upper16:.LANCHOR1
	ldr	lr, [sp, #4]
	add	sp, sp, #8
	ldr	r1, [r3, #3440]
	ldr	r0, [r3, #3444]
	add	r1, r1, #216
	b	queue_work
.L1608:
	.align	2
.L1607:
	.word	.LANCHOR2+664
	.fnend
	.size	mbim_resume, .-mbim_resume
	.align	2
	.syntax unified
	.arm
	.fpu softvfp
	.type	rmnet_smd_debug_read_stats, %function
rmnet_smd_debug_read_stats:
	.fnstart
	@ args = 0, pretend = 0, frame = 184
	@ frame_needed = 0, uses_anonymous_args = 0
	strd	r4, [sp, #-36]!
	.save {r4, r5, r6, r7, r8, r9, r10, fp, lr}
	movw	r5, #:lower16:kmalloc_caches
	strd	r6, [sp, #8]
	movt	r5, #:upper16:kmalloc_caches
	strd	r8, [sp, #16]
	strd	r10, [sp, #24]
	str	lr, [sp, #32]
	ldr	r4, [r0, #124]
	.pad #260
	sub	sp, sp, #260
	str	r1, [sp, #84]
	strd	r2, [sp, #88]
	add	lr, r4, #252
	add	ip, r4, #316
	ldrd	r2, [lr, #8]
	ldrd	r0, [lr, #16]
	ldrd	r6, [lr, #24]
	strd	r2, [sp, #136]
	ldrd	r2, [lr, #32]
	strd	r0, [sp, #144]
	ldrd	r0, [lr, #40]
	strd	r6, [sp, #152]
	ldrd	r6, [lr, #48]
	strd	r2, [sp, #160]
	ldrd	r2, [lr, #56]
	strd	r0, [sp, #168]
	ldrd	r0, [ip]
	strd	r6, [sp, #176]
	ldrd	r6, [ip, #8]
	strd	r2, [sp, #184]
	ldrd	r2, [ip, #16]
	strd	r0, [sp, #192]
	ldrd	r0, [ip, #24]
	strd	r6, [sp, #200]
	ldrd	r6, [ip, #32]
	strd	r2, [sp, #208]
	ldrd	r2, [ip, #40]
	strd	r0, [sp, #216]
	strd	r6, [sp, #224]
	ldrd	r0, [ip, #48]
	ldrd	r6, [ip, #56]
	strd	r2, [sp, #232]
	ldrd	r2, [r4, #252]
	strd	r0, [sp, #240]
	ldr	r0, [r5, #36]
	strd	r2, [sp, #128]
	strd	r6, [sp, #248]
	cmp	r0, #0
	beq	.L1612
	mov	r2, #512
	movw	r1, #32976
	bl	kmem_cache_alloc_trace
	subs	r5, r0, #0
	beq	.L1615
.L1610:
	add	r10, r4, #156
	mov	r0, r10
	bl	_raw_spin_lock_irqsave
	ldr	lr, [r4, #160]
	ldr	r3, [r4, #432]
	ldr	r2, [r4, #436]
	ldr	r8, [r4, #416]
	ldr	r9, [r4, #420]
	ldr	r7, [r4, #424]
	ldr	ip, [r4, #440]
	strd	r2, [sp, #72]
	ldr	r3, [sp, #172]
	ldr	r2, [sp, #236]
	sub	r1, r9, r8
	ldr	r6, [r4, #428]
	str	r0, [sp, #112]
	ldr	r0, [r4, #252]
	str	ip, [sp, #80]
	ldr	fp, [r4, #444]
	str	lr, [sp, #96]
	strd	r2, [sp, #116]
	str	r1, [sp, #124]
	bl	smd_read_avail
	str	r0, [sp, #100]
	ldr	r0, [r4, #252]
	bl	smd_write_avail
	str	r0, [sp, #104]
	ldr	r0, [r4, #316]
	bl	smd_read_avail
	str	r0, [sp, #108]
	ldr	r0, [r4, #316]
	sub	r4, r7, r6
	bl	smd_write_avail
	ldr	r3, [sp, #76]
	str	r8, [sp, #12]
	ldr	ip, [sp, #80]
	str	r6, [sp, #24]
	ldr	r2, [sp, #116]
	str	r4, [sp, #28]
	ldr	r6, [sp, #72]
	ldr	r1, [sp, #96]
	sub	ip, ip, fp
	ldr	r4, [sp, #76]
	str	r2, [sp]
	ldr	r2, [sp, #72]
	str	r0, [sp, #68]
	mov	r0, r5
	str	ip, [sp, #52]
	ldr	ip, [sp, #100]
	stmib	sp, {r1, r9}
	ldr	r1, [sp, #124]
	sub	lr, r2, r3
	movw	r2, #:lower16:.LC100
	ldr	r3, [sp, #120]
	movt	r2, #:upper16:.LC100
	str	ip, [sp, #56]
	ldr	ip, [sp, #104]
	str	lr, [sp, #40]
	ldr	lr, [sp, #80]
	str	r1, [sp, #16]
	mov	r1, #512
	str	r7, [sp, #20]
	str	r6, [sp, #32]
	str	ip, [sp, #60]
	ldr	ip, [sp, #108]
	str	r4, [sp, #36]
	str	lr, [sp, #44]
	str	fp, [sp, #48]
	str	ip, [sp, #64]
	bl	scnprintf
	mov	r4, r0
	ldr	r1, [sp, #112]
	mov	r0, r10
	bl	_raw_spin_unlock_irqrestore
	str	r4, [sp]
	mov	r3, r5
	ldrd	r0, [sp, #84]
	ldr	r2, [sp, #92]
	bl	simple_read_from_buffer
	mov	r4, r0
	mov	r0, r5
	bl	kfree
.L1609:
	mov	r0, r4
	add	sp, sp, #260
	@ sp needed
	ldrd	r4, [sp]
	ldrd	r6, [sp, #8]
	ldrd	r8, [sp, #16]
	ldrd	r10, [sp, #24]
	add	sp, sp, #32
	ldr	pc, [sp], #4
.L1612:
	mov	r5, #16
	b	.L1610
.L1615:
	mvn	r4, #11
	b	.L1609
	.fnend
	.size	rmnet_smd_debug_read_stats, .-rmnet_smd_debug_read_stats
	.align	2
	.syntax unified
	.arm
	.fpu softvfp
	.type	rmnet_sdio_read_stats, %function
rmnet_sdio_read_stats:
	.fnstart
	@ args = 0, pretend = 0, frame = 0
	@ frame_needed = 0, uses_anonymous_args = 0
	movw	ip, #:lower16:kmalloc_caches
	strd	r4, [sp, #-32]!
	.save {r4, r5, r6, r7, r8, r9, r10, lr}
	movt	ip, #:upper16:kmalloc_caches
	strd	r6, [sp, #8]
	mov	r7, r1
	strd	r8, [sp, #16]
	mov	r8, r2
	mov	r9, r3
	str	r10, [sp, #24]
	str	lr, [sp, #28]
	ldr	r4, [r0, #124]
	.pad #64
	sub	sp, sp, #64
	ldr	r0, [ip, #40]
	cmp	r0, #0
	beq	.L1619
	mov	r2, #1024
	movw	r1, #32976
	bl	kmem_cache_alloc_trace
	subs	r5, r0, #0
	beq	.L1622
.L1617:
	add	r6, r4, #180
	mov	r0, r6
	bl	_raw_spin_lock_irqsave
	ldr	r1, [r4, #188]
	movw	r2, #:lower16:.LC101
	mov	r10, r0
	ldr	ip, [r4, #312]
	movt	r2, #:upper16:.LC101
	mov	r0, r5
	ldr	r3, [r4, #344]
	str	ip, [sp, #56]
	ldr	ip, [r4, #308]
	str	r1, [sp, #48]
	mov	r1, #4096
	str	ip, [sp, #52]
	ldr	ip, [r4, #120]
	str	ip, [sp, #44]
	ldr	ip, [r4, #356]
	str	ip, [sp, #40]
	ldr	ip, [r4, #320]
	str	ip, [sp, #36]
	ldr	ip, [r4, #108]
	str	ip, [sp, #32]
	ldr	ip, [r4, #360]
	str	ip, [sp, #28]
	ldr	ip, [r4, #316]
	str	ip, [sp, #24]
	ldr	ip, [r4, #172]
	str	ip, [sp, #20]
	ldr	ip, [r4, #160]
	str	ip, [sp, #16]
	ldr	ip, [r4, #348]
	str	ip, [sp, #12]
	ldr	ip, [r4, #352]
	str	ip, [sp, #8]
	ldr	ip, [r4, #144]
	str	ip, [sp, #4]
	ldr	ip, [r4, #132]
	str	ip, [sp]
	bl	scnprintf
	mov	r4, r0
	mov	r1, r10
	mov	r0, r6
	bl	_raw_spin_unlock_irqrestore
	str	r4, [sp]
	mov	r2, r9
	mov	r1, r8
	mov	r0, r7
	mov	r3, r5
	bl	simple_read_from_buffer
	mov	r4, r0
	mov	r0, r5
	bl	kfree
.L1616:
	mov	r0, r4
	add	sp, sp, #64
	@ sp needed
	ldrd	r4, [sp]
	ldrd	r6, [sp, #8]
	ldrd	r8, [sp, #16]
	ldr	r10, [sp, #24]
	add	sp, sp, #28
	ldr	pc, [sp], #4
.L1619:
	mov	r5, #16
	b	.L1617
.L1622:
	mvn	r4, #11
	b	.L1616
	.fnend
	.size	rmnet_sdio_read_stats, .-rmnet_sdio_read_stats
	.align	2
	.syntax unified
	.arm
	.fpu softvfp
	.type	rmnet_mux_read_stats, %function
rmnet_mux_read_stats:
	.fnstart
	@ args = 0, pretend = 0, frame = 32
	@ frame_needed = 0, uses_anonymous_args = 0
	movw	ip, #:lower16:kmalloc_caches
	strd	r4, [sp, #-36]!
	.save {r4, r5, r6, r7, r8, r9, r10, fp, lr}
	movt	ip, #:upper16:kmalloc_caches
	strd	r6, [sp, #8]
	mov	r7, r1
	strd	r8, [sp, #16]
	mov	r8, r2
	mov	r9, r3
	strd	r10, [sp, #24]
	str	lr, [sp, #32]
	ldr	r4, [r0, #124]
	.pad #92
	sub	sp, sp, #92
	ldr	r0, [ip, #40]
	cmp	r0, #0
	beq	.L1627
	mov	r2, #1024
	mov	r1, #208
	bl	kmem_cache_alloc_trace
	subs	r5, r0, #0
	beq	.L1631
.L1624:
	add	r6, r4, #356
	mov	r0, r6
	bl	_raw_spin_lock_irqsave
	ldr	r3, [r4, #200]
	ldr	r2, [r4, #352]
	ldr	fp, [r4, #392]
	ldr	r1, [r4, #396]
	str	r3, [sp, #60]
	ldr	r3, [r4, #224]
	str	r0, [sp, #84]
	ldr	r0, [r4, #400]
	sub	r2, r2, #1
	cmp	r2, #9
	ldr	r10, [r4, #404]
	movwhi	ip, #:lower16:.LC102
	ldr	lr, [r4, #412]
	str	r3, [sp, #64]
	ldr	r3, [r4, #300]
	movthi	ip, #:upper16:.LC102
	str	r3, [sp, #68]
	ldr	r3, [r4, #324]
	str	r0, [sp, #72]
	ldr	r0, [r4, #408]
	str	r3, [sp, #76]
	ldr	r3, [r4, #336]
	str	r3, [sp, #80]
	ldr	r3, [r4, #340]
	str	r3, [sp, #56]
	ldr	r3, [r4, #388]
	bls	.L1632
.L1626:
	ldr	r4, [r4, #344]
	movw	r2, #:lower16:.LC103
	str	fp, [sp]
	str	r10, [sp, #12]
	ldr	r10, [sp, #56]
	movt	r2, #:upper16:.LC103
	str	lr, [sp, #36]
	ldr	lr, [sp, #76]
	strd	r0, [sp, #4]
	mov	r1, #1024
	mov	r0, r5
	str	r10, [sp, #16]
	ldr	r10, [sp, #60]
	str	ip, [sp, #48]
	str	r4, [sp, #52]
	str	r10, [sp, #20]
	ldr	r10, [sp, #64]
	str	lr, [sp, #40]
	ldr	lr, [sp, #80]
	str	r10, [sp, #24]
	ldr	r10, [sp, #68]
	str	r10, [sp, #28]
	ldr	r10, [sp, #72]
	str	lr, [sp, #44]
	str	r10, [sp, #32]
	bl	scnprintf
	mov	r4, r0
	ldr	r1, [sp, #84]
	mov	r0, r6
	bl	_raw_spin_unlock_irqrestore
	str	r4, [sp]
	mov	r2, r9
	mov	r1, r8
	mov	r0, r7
	mov	r3, r5
	bl	simple_read_from_buffer
	mov	r4, r0
	mov	r0, r5
	bl	kfree
.L1623:
	mov	r0, r4
	add	sp, sp, #92
	@ sp needed
	ldrd	r4, [sp]
	ldrd	r6, [sp, #8]
	ldrd	r8, [sp, #16]
	ldrd	r10, [sp, #24]
	add	sp, sp, #32
	ldr	pc, [sp], #4
.L1632:
	movw	ip, #:lower16:.LANCHOR2
	movt	ip, #:upper16:.LANCHOR2
	add	r2, ip, r2, lsl #2
	ldr	ip, [r2, #676]
	b	.L1626
.L1627:
	mov	r5, #16
	b	.L1624
.L1631:
	mvn	r4, #11
	b	.L1623
	.fnend
	.size	rmnet_mux_read_stats, .-rmnet_mux_read_stats
	.align	2
	.syntax unified
	.arm
	.fpu softvfp
	.type	debug_read_status, %function
debug_read_status:
	.fnstart
	@ args = 0, pretend = 0, frame = 8
	@ frame_needed = 0, uses_anonymous_args = 0
	movw	ip, #:lower16:kmalloc_caches
	strd	r4, [sp, #-36]!
	.save {r4, r5, r6, r7, r8, r9, r10, fp, lr}
	movt	ip, #:upper16:kmalloc_caches
	strd	r6, [sp, #8]
	strd	r8, [sp, #16]
	mov	r9, r1
	strd	r10, [sp, #24]
	mov	r10, r2
	mov	fp, r3
	str	lr, [sp, #32]
	ldr	r5, [r0, #124]
	.pad #20
	sub	sp, sp, #20
	ldr	r0, [ip, #36]
	ldmib	r5, {r7, r8}
	cmp	r0, #0
	beq	.L1639
	mov	r2, #512
	movw	r1, #32976
	bl	kmem_cache_alloc_trace
	subs	r6, r0, #0
	beq	.L1649
.L1634:
	mov	r0, r5
	bl	_raw_spin_lock_irqsave
	movw	r2, #:lower16:.LC104
	mov	r1, #512
	ldr	r3, [r5, #128]
	movt	r2, #:upper16:.LC104
	str	r0, [sp, #8]
	mov	r0, r6
	bl	scnprintf
	movw	r2, #:lower16:.LC105
	rsb	r1, r0, #512
	ldr	r3, [r5, #132]
	mov	r4, r0
	movt	r2, #:upper16:.LC105
	add	r0, r6, r0
	bl	scnprintf
	ldr	ip, [r5, #128]
	add	r4, r4, r0
	movw	r2, #:lower16:.LC106
	ldr	r3, [r5, #132]
	rsb	r1, r4, #512
	add	r0, r6, r4
	movt	r2, #:upper16:.LC106
	sub	r3, ip, r3
	bl	scnprintf
	add	r4, r4, r0
	movw	r2, #:lower16:.LC107
	ldr	r3, [r5, #136]
	rsb	r1, r4, #512
	add	r0, r6, r4
	movt	r2, #:upper16:.LC107
	bl	scnprintf
	add	r4, r4, r0
	movw	r2, #:lower16:.LC108
	ldr	r3, [r5, #140]
	rsb	r1, r4, #512
	add	r0, r6, r4
	movt	r2, #:upper16:.LC108
	bl	scnprintf
	ldr	ip, [r5, #136]
	add	r4, r4, r0
	movw	r2, #:lower16:.LC109
	ldr	r3, [r5, #140]
	rsb	r1, r4, #512
	add	r0, r6, r4
	movt	r2, #:upper16:.LC109
	sub	r3, ip, r3
	bl	scnprintf
	cmp	r8, #0
	add	r4, r4, r0
	mov	r3, r4
	beq	.L1636
	movw	r2, #:lower16:.LC110
	rsb	r1, r4, #512
	ldr	r3, [r8, #164]
	add	r0, r6, r4
	movt	r2, #:upper16:.LC110
	bl	scnprintf
	add	r4, r4, r0
	mov	r3, r4
.L1636:
	ldr	r2, [r7, #100]
	cmp	r2, #0
	beq	.L1637
	mov	r0, r7
	blx	r2
	cmp	r0, #0
	movw	r2, #:lower16:.LC111
	movne	r3, #2
	moveq	r3, #0
	movt	r2, #:upper16:.LC111
	rsb	r1, r4, #512
	add	r0, r6, r4
	bl	scnprintf
	add	r3, r4, r0
.L1637:
	mov	r0, r5
	ldr	r1, [sp, #8]
	str	r3, [sp, #12]
	bl	_raw_spin_unlock_irqrestore
	ldr	r3, [sp, #12]
	mov	r2, fp
	mov	r1, r10
	mov	r0, r9
	str	r3, [sp]
	mov	r3, r6
	bl	simple_read_from_buffer
	mov	r4, r0
	mov	r0, r6
	bl	kfree
.L1633:
	mov	r0, r4
	add	sp, sp, #20
	@ sp needed
	ldrd	r4, [sp]
	ldrd	r6, [sp, #8]
	ldrd	r8, [sp, #16]
	ldrd	r10, [sp, #24]
	add	sp, sp, #32
	ldr	pc, [sp], #4
.L1639:
	mov	r6, #16
	b	.L1634
.L1649:
	mvn	r4, #11
	b	.L1633
	.fnend
	.size	debug_read_status, .-debug_read_status
	.align	2
	.syntax unified
	.arm
	.fpu softvfp
	.type	debug_sdio_read_stats, %function
debug_sdio_read_stats:
	.fnstart
	@ args = 0, pretend = 0, frame = 16
	@ frame_needed = 0, uses_anonymous_args = 0
	movw	r0, #:lower16:kmalloc_caches
	strd	r4, [sp, #-36]!
	.save {r4, r5, r6, r7, r8, r9, r10, fp, lr}
	movt	r0, #:upper16:kmalloc_caches
	strd	r6, [sp, #8]
	strd	r8, [sp, #16]
	strd	r10, [sp, #24]
	str	lr, [sp, #32]
	ldr	r0, [r0, #40]
	.pad #68
	sub	sp, sp, #68
	str	r1, [sp, #52]
	strd	r2, [sp, #56]
	cmp	r0, #0
	beq	.L1656
	mov	r2, #1024
	movw	r1, #32976
	bl	kmem_cache_alloc_trace
	subs	r10, r0, #0
	beq	.L1660
.L1651:
	movw	r8, #:lower16:.LANCHOR1
	movt	r8, #:upper16:.LANCHOR1
	ldr	r5, [r8]
	cmp	r5, #0
	beq	.L1654
	mov	r5, #0
	movw	r3, #:lower16:.LC112
	movt	r3, #:upper16:.LC112
	mov	r6, r5
	add	r7, r8, #4
	str	r3, [sp, #48]
.L1653:
	ldr	r4, [r7, #24]
	add	r7, r7, #108
	add	r9, r4, #4
	mov	r0, r9
	bl	_raw_spin_lock_irqsave
	ldr	ip, [r4, #112]
	mov	r3, r6
	rsb	r1, r5, #4096
	mov	fp, r0
	ldr	r2, [sp, #48]
	add	r0, r10, r5
	add	r6, r6, #1
	str	ip, [sp, #40]
	ldr	ip, [r4, #108]
	str	ip, [sp, #36]
	ldr	ip, [r4, #8]
	str	ip, [sp, #32]
	ldr	ip, [r4, #76]
	str	ip, [sp, #28]
	ldr	ip, [r4, #48]
	str	ip, [sp, #24]
	ldr	ip, [r4, #44]
	str	ip, [sp, #20]
	ldr	ip, [r4, #172]
	str	ip, [sp, #16]
	ldr	ip, [r4, #176]
	str	ip, [sp, #12]
	ldr	ip, [r4, #184]
	str	ip, [sp, #8]
	ldr	ip, [r4, #180]
	stm	sp, {r4, ip}
	bl	scnprintf
	add	r5, r5, r0
	mov	r1, fp
	mov	r0, r9
	bl	_raw_spin_unlock_irqrestore
	ldr	r3, [r8]
	cmp	r6, r3
	bcc	.L1653
.L1654:
	mov	r3, r10
	ldrd	r0, [sp, #52]
	str	r5, [sp]
	ldr	r2, [sp, #60]
	bl	simple_read_from_buffer
	mov	r4, r0
	mov	r0, r10
	bl	kfree
.L1650:
	mov	r0, r4
	add	sp, sp, #68
	@ sp needed
	ldrd	r4, [sp]
	ldrd	r6, [sp, #8]
	ldrd	r8, [sp, #16]
	ldrd	r10, [sp, #24]
	add	sp, sp, #32
	ldr	pc, [sp], #4
.L1656:
	mov	r10, #16
	b	.L1651
.L1660:
	mvn	r4, #11
	b	.L1650
	.fnend
	.size	debug_sdio_read_stats, .-debug_sdio_read_stats
	.align	2
	.syntax unified
	.arm
	.fpu softvfp
	.type	debug_smd_read_stats, %function
debug_smd_read_stats:
	.fnstart
	@ args = 0, pretend = 0, frame = 48
	@ frame_needed = 0, uses_anonymous_args = 0
	movw	r0, #:lower16:kmalloc_caches
	strd	r4, [sp, #-36]!
	.save {r4, r5, r6, r7, r8, r9, r10, fp, lr}
	movt	r0, #:upper16:kmalloc_caches
	strd	r6, [sp, #8]
	strd	r8, [sp, #16]
	strd	r10, [sp, #24]
	str	lr, [sp, #32]
	ldr	r0, [r0, #36]
	.pad #92
	sub	sp, sp, #92
	str	r1, [sp, #76]
	strd	r2, [sp, #80]
	cmp	r0, #0
	beq	.L1668
	mov	r2, #512
	movw	r1, #32976
	bl	kmem_cache_alloc_trace
	subs	r3, r0, #0
	str	r3, [sp, #64]
	beq	.L1674
.L1662:
	movw	r7, #:lower16:.LANCHOR1
	movt	r7, #:upper16:.LANCHOR1
	ldr	r3, [r7, #220]
	cmp	r3, #0
	beq	.L1666
	add	fp, r7, #224
	mov	r6, #0
	movw	r3, #:lower16:.LC113
	mov	r8, fp
	movt	r3, #:upper16:.LC113
	mov	r9, r6
	mov	fp, r7
	str	r3, [sp, #72]
.L1665:
	ldr	r3, [sp, #64]
	ldr	r7, [r8, #24]
	add	r3, r3, r9
	add	r5, r7, #4
	ldr	r10, [r7, #72]
	str	r3, [sp, #44]
	rsb	r3, r9, #512
	mov	r0, r5
	str	r3, [sp, #48]
	bl	_raw_spin_lock_irqsave
	ldr	r3, [r7, #8]
	ldr	r4, [r10]
	str	r3, [sp, #60]
	ldr	r3, [r7, #156]
	cmp	r4, #0
	moveq	lr, r4
	str	r3, [sp, #52]
	ldr	r3, [r7, #160]
	str	r0, [sp, #68]
	mov	r0, r4
	str	r3, [sp, #56]
	ldr	r3, [r7, #164]
	ldr	r7, [r7, #168]
	str	r3, [sp, #48]
	beq	.L1664
	bl	smd_read_avail
	ldr	lr, [r10]
	mov	r4, r0
	cmp	lr, #0
	mov	r0, lr
	beq	.L1664
	bl	smd_write_avail
	mov	lr, r0
.L1664:
	ldr	ip, [r10, #8]
	rsb	r1, r9, #512
	add	r8, r8, #108
	ldr	r10, [r10, #8]
	str	r7, [sp]
	ldr	r0, [sp, #44]
	str	r4, [sp, #20]
	ldr	r7, [sp, #52]
	ldr	r3, [sp, #48]
	and	ip, ip, #1
	ubfx	r10, r10, #1, #1
	ldr	r2, [sp, #72]
	str	lr, [sp, #24]
	str	r7, [sp, #8]
	ldr	r7, [sp, #56]
	str	r3, [sp, #4]
	mov	r3, r6
	add	r6, r6, #1
	str	ip, [sp, #28]
	str	r7, [sp, #12]
	ldr	r7, [sp, #60]
	str	r10, [sp, #32]
	str	r7, [sp, #16]
	bl	scnprintf
	add	r9, r9, r0
	ldr	r1, [sp, #68]
	mov	r0, r5
	bl	_raw_spin_unlock_irqrestore
	ldr	r3, [fp, #220]
	cmp	r6, r3
	bcc	.L1665
	mov	r3, r9
.L1666:
	ldr	r5, [sp, #64]
	str	r3, [sp]
	ldrd	r0, [sp, #76]
	ldr	r2, [sp, #84]
	mov	r3, r5
	bl	simple_read_from_buffer
	mov	r4, r0
	mov	r0, r5
	bl	kfree
.L1661:
	mov	r0, r4
	add	sp, sp, #92
	@ sp needed
	ldrd	r4, [sp]
	ldrd	r6, [sp, #8]
	ldrd	r8, [sp, #16]
	ldrd	r10, [sp, #24]
	add	sp, sp, #32
	ldr	pc, [sp], #4
.L1668:
	mov	r3, #16
	str	r3, [sp, #64]
	b	.L1662
.L1674:
	mvn	r4, #11
	b	.L1661
	.fnend
	.size	debug_smd_read_stats, .-debug_smd_read_stats
	.align	2
	.syntax unified
	.arm
	.fpu softvfp
	.type	gbam_read_stats, %function
gbam_read_stats:
	.fnstart
	@ args = 0, pretend = 0, frame = 0
	@ frame_needed = 0, uses_anonymous_args = 0
	movw	r0, #:lower16:kmalloc_caches
	strd	r4, [sp, #-36]!
	.save {r4, r5, r6, r7, r8, r9, r10, fp, lr}
	movt	r0, #:upper16:kmalloc_caches
	strd	r6, [sp, #8]
	strd	r8, [sp, #16]
	mov	r8, r1
	mov	r9, r2
	strd	r10, [sp, #24]
	mov	r10, r3
	str	lr, [sp, #32]
	ldr	r0, [r0, #40]
	.pad #68
	sub	sp, sp, #68
	cmp	r0, #0
	beq	.L1681
	mov	r2, #1024
	movw	r1, #32976
	bl	kmem_cache_alloc_trace
	subs	r5, r0, #0
	beq	.L1685
.L1676:
	movw	r3, #:lower16:.LANCHOR1
	movt	r3, #:upper16:.LANCHOR1
	ldr	r2, [r3, #440]
	cmp	r2, #0
	ble	.L1686
	ldr	r4, [r3, #444]
	cmp	r4, #0
	beq	.L1679
	add	r6, r4, #4
	add	r7, r4, #8
	mov	r0, r6
	bl	_raw_spin_lock_irqsave
	mov	fp, r0
	mov	r0, r7
	bl	_raw_spin_lock
	ldr	r0, [r4, #20]
	add	ip, r4, #20
	movw	r2, #:lower16:.LC114
	ldr	r1, [r4, #20]
	movt	r2, #:upper16:.LC114
	mov	r3, #0
	ubfx	r0, r0, #1, #1
	ubfx	r1, r1, #2, #1
	strd	r0, [sp, #52]
	ldr	lr, [r4, #68]
	mov	r1, #1024
	mov	r0, r5
	str	lr, [sp, #48]
	ldr	lr, [r4, #44]
	str	lr, [sp, #44]
	ldr	lr, [r4, #280]
	str	lr, [sp, #40]
	ldr	lr, [r4, #276]
	str	lr, [sp, #36]
	ldr	lr, [r4, #272]
	str	lr, [sp, #32]
	ldr	lr, [r4, #268]
	str	lr, [sp, #28]
	ldr	lr, [r4, #248]
	str	lr, [sp, #24]
	ldr	lr, [r4, #244]
	str	lr, [sp, #20]
	ldr	lr, [r4, #240]
	str	lr, [sp, #16]
	ldr	lr, [r4, #260]
	str	lr, [sp, #12]
	ldr	lr, [r4, #264]
	stm	sp, {r4, ip, lr}
	bl	scnprintf
	mov	r4, r0
	mov	r0, r7
	bl	_raw_spin_unlock
	mov	r1, fp
	mov	r0, r6
	bl	_raw_spin_unlock_irqrestore
.L1679:
	str	r4, [sp]
	mov	r2, r10
	mov	r1, r9
	mov	r0, r8
	mov	r3, r5
	bl	simple_read_from_buffer
	mov	r4, r0
	mov	r0, r5
	bl	kfree
.L1675:
	mov	r0, r4
	add	sp, sp, #68
	@ sp needed
	ldrd	r4, [sp]
	ldrd	r6, [sp, #8]
	ldrd	r8, [sp, #16]
	ldrd	r10, [sp, #24]
	add	sp, sp, #32
	ldr	pc, [sp], #4
.L1686:
	mov	r4, #0
	b	.L1679
.L1681:
	mov	r5, #16
	b	.L1676
.L1685:
	mvn	r4, #11
	b	.L1675
	.fnend
	.size	gbam_read_stats, .-gbam_read_stats
	.align	2
	.syntax unified
	.arm
	.fpu softvfp
	.type	gsmd_ctrl_read_stats, %function
gsmd_ctrl_read_stats:
	.fnstart
	@ args = 0, pretend = 0, frame = 48
	@ frame_needed = 0, uses_anonymous_args = 0
	movw	r0, #:lower16:kmalloc_caches
	strd	r4, [sp, #-36]!
	.save {r4, r5, r6, r7, r8, r9, r10, fp, lr}
	movt	r0, #:upper16:kmalloc_caches
	strd	r6, [sp, #8]
	strd	r8, [sp, #16]
	strd	r10, [sp, #24]
	str	lr, [sp, #32]
	ldr	r0, [r0, #40]
	.pad #92
	sub	sp, sp, #92
	str	r1, [sp, #76]
	strd	r2, [sp, #80]
	cmp	r0, #0
	beq	.L1695
	mov	r2, #1024
	movw	r1, #32976
	bl	kmem_cache_alloc_trace
	subs	r3, r0, #0
	str	r3, [sp, #60]
	beq	.L1706
.L1688:
	ldr	r4, .L1707
	mov	r10, #0
	movw	r3, #:lower16:.LC116
	movw	r2, #:lower16:.LC115
	movw	r1, #:lower16:.LC117
	movt	r3, #:upper16:.LC116
	movt	r2, #:upper16:.LC115
	movt	r1, #:upper16:.LC117
	mov	fp, r10
	str	r3, [sp, #64]
	str	r2, [sp, #68]
	str	r1, [sp, #72]
.L1693:
	ldr	r9, [r4]
	ldr	r3, [sp, #60]
	cmp	r9, #0
	add	r6, r9, #108
	add	r8, r3, r10
	rsb	r3, r10, #1024
	mov	r0, r6
	str	r3, [sp, #40]
	beq	.L1690
	bl	_raw_spin_lock_irqsave
	ldr	lr, [sp, #68]
	str	r0, [sp, #52]
	ldr	r3, [r9, #92]
	ldr	ip, [r9, #88]
	ldr	r2, [r9]
	ldr	r1, [r9, #8]
	str	r3, [sp, #44]
	ldr	r3, [sp, #64]
	cmp	ip, #0
	ldr	r5, [r9, #8]
	movne	r3, lr
	cmp	r2, #0
	mov	r7, r2
	mov	ip, r2
	str	r3, [sp, #48]
	ldr	r3, [r9, #96]
	mov	r0, r2
	ubfx	r5, r5, #1, #1
	str	r3, [sp, #40]
	and	r3, r1, #1
	str	r3, [sp, #56]
	beq	.L1692
	bl	smd_read_avail
	ldr	ip, [r9]
	mov	r7, r0
	cmp	ip, #0
	mov	r0, ip
	beq	.L1692
	bl	smd_write_avail
	mov	ip, r0
.L1692:
	ldr	lr, [sp, #40]
	rsb	r1, r10, #1024
	mov	r0, r8
	mov	r3, fp
	ldr	r2, [sp, #72]
	str	r9, [sp]
	stmib	sp, {r9, lr}
	ldr	lr, [sp, #44]
	str	r5, [sp, #24]
	str	r7, [sp, #28]
	str	ip, [sp, #32]
	str	lr, [sp, #12]
	ldr	lr, [sp, #48]
	str	lr, [sp, #16]
	ldr	lr, [sp, #56]
	str	lr, [sp, #20]
	bl	scnprintf
	add	r10, r10, r0
	ldr	r1, [sp, #52]
	mov	r0, r6
	bl	_raw_spin_unlock_irqrestore
.L1690:
	add	fp, fp, #1
	add	r4, r4, #84
	cmp	fp, #6
	bne	.L1693
	ldr	r5, [sp, #60]
	str	r10, [sp]
	ldrd	r0, [sp, #76]
	ldr	r2, [sp, #84]
	mov	r3, r5
	bl	simple_read_from_buffer
	mov	r4, r0
	mov	r0, r5
	bl	kfree
.L1687:
	mov	r0, r4
	add	sp, sp, #92
	@ sp needed
	ldrd	r4, [sp]
	ldrd	r6, [sp, #8]
	ldrd	r8, [sp, #16]
	ldrd	r10, [sp, #24]
	add	sp, sp, #32
	ldr	pc, [sp], #4
.L1695:
	mov	r3, #16
	str	r3, [sp, #60]
	b	.L1688
.L1706:
	mvn	r4, #11
	b	.L1687
.L1708:
	.align	2
.L1707:
	.word	.LANCHOR1+528
	.fnend
	.size	gsmd_ctrl_read_stats, .-gsmd_ctrl_read_stats
	.align	2
	.syntax unified
	.arm
	.fpu softvfp
	.type	gctrl_read_stats, %function
gctrl_read_stats:
	.fnstart
	@ args = 0, pretend = 0, frame = 32
	@ frame_needed = 0, uses_anonymous_args = 0
	movw	r0, #:lower16:kmalloc_caches
	strd	r4, [sp, #-36]!
	.save {r4, r5, r6, r7, r8, r9, r10, fp, lr}
	movt	r0, #:upper16:kmalloc_caches
	strd	r6, [sp, #8]
	strd	r8, [sp, #16]
	strd	r10, [sp, #24]
	str	lr, [sp, #32]
	ldr	r0, [r0, #40]
	.pad #68
	sub	sp, sp, #68
	str	r1, [sp, #52]
	strd	r2, [sp, #56]
	cmp	r0, #0
	beq	.L1717
	mov	r2, #1024
	movw	r1, #32976
	bl	kmem_cache_alloc_trace
	subs	r10, r0, #0
	beq	.L1725
.L1710:
	movw	r9, #:lower16:.LANCHOR1
	movt	r9, #:upper16:.LANCHOR1
	ldr	r3, [r9, #1036]
	cmp	r3, #0
	beq	.L1726
	mov	r5, #0
	movw	r2, #:lower16:.LC116
	str	r9, [sp, #48]
	movw	r1, #:lower16:.LC115
	movw	r0, #:lower16:.LC118
	movt	r2, #:upper16:.LC116
	movt	r1, #:upper16:.LC115
	movt	r0, #:upper16:.LC118
	mov	r7, r5
	add	r6, r9, #1040
	str	r2, [sp, #36]
	str	r1, [sp, #40]
	str	r0, [sp, #44]
.L1714:
	ldr	r4, [r6]
	mov	r2, r5
	cmp	r4, #0
	add	r8, r4, #4
	mov	r0, r8
	beq	.L1712
	bl	_raw_spin_lock_irqsave
	ldr	lr, [r4, #84]
	mov	fp, r0
	add	r0, r10, r5
	ldr	ip, [r4, #84]
	ldr	r3, [r4, #88]
	ldr	r9, [r4, #104]
	ldr	r2, [r4, #96]
	and	lr, lr, #1
	ubfx	ip, ip, #1, #1
	ldr	r1, [r4, #100]
	str	r7, [sp]
	cmp	r3, #0
	str	r4, [sp, #4]
	str	ip, [sp, #28]
	ldr	ip, [sp, #40]
	str	r9, [sp, #16]
	ldr	r9, [sp, #36]
	str	r1, [sp, #8]
	rsb	r1, r5, #1024
	str	r2, [sp, #12]
	ldr	r2, [sp, #44]
	movne	r9, ip
	str	r9, [sp, #20]
	ldr	r3, [r6, #24]
	str	lr, [sp, #24]
	bl	scnprintf
	add	r5, r5, r0
	mov	r1, fp
	mov	r0, r8
	bl	_raw_spin_unlock_irqrestore
	ldr	r3, [sp, #48]
	mov	r2, r5
	ldr	r3, [r3, #1036]
.L1712:
	add	r7, r7, #1
	add	r6, r6, #104
	cmp	r7, r3
	bcc	.L1714
.L1715:
	str	r2, [sp]
	mov	r3, r10
	ldrd	r0, [sp, #52]
	ldr	r2, [sp, #60]
	bl	simple_read_from_buffer
	mov	r4, r0
	mov	r0, r10
	bl	kfree
.L1709:
	mov	r0, r4
	add	sp, sp, #68
	@ sp needed
	ldrd	r4, [sp]
	ldrd	r6, [sp, #8]
	ldrd	r8, [sp, #16]
	ldrd	r10, [sp, #24]
	add	sp, sp, #32
	ldr	pc, [sp], #4
.L1717:
	mov	r10, #16
	b	.L1710
.L1726:
	mov	r2, r3
	b	.L1715
.L1725:
	mvn	r4, #11
	b	.L1709
	.fnend
	.size	gctrl_read_stats, .-gctrl_read_stats
	.align	2
	.syntax unified
	.arm
	.fpu softvfp
	.type	ghsic_data_read_stats, %function
ghsic_data_read_stats:
	.fnstart
	@ args = 0, pretend = 0, frame = 32
	@ frame_needed = 0, uses_anonymous_args = 0
	movw	r0, #:lower16:kmalloc_caches
	strd	r4, [sp, #-36]!
	.save {r4, r5, r6, r7, r8, r9, r10, fp, lr}
	movt	r0, #:upper16:kmalloc_caches
	strd	r6, [sp, #8]
	strd	r8, [sp, #16]
	strd	r10, [sp, #24]
	str	lr, [sp, #32]
	ldr	r0, [r0, #48]
	.pad #76
	sub	sp, sp, #76
	str	r1, [sp, #60]
	strd	r2, [sp, #64]
	cmp	r0, #0
	beq	.L1735
	mov	r2, #4096
	movw	r1, #32976
	bl	kmem_cache_alloc_trace
	subs	r10, r0, #0
	beq	.L1738
.L1728:
	movw	fp, #:lower16:.LANCHOR1
	movt	fp, #:upper16:.LANCHOR1
	ldr	r3, [fp, #1456]
	cmp	r3, #0
	beq	.L1739
	ldr	r7, .L1740
	mov	r5, #0
	movw	r2, #:lower16:.LC119
	movw	r1, #:lower16:.LC120
	movt	r2, #:upper16:.LC119
	movt	r1, #:upper16:.LC120
	mov	r6, r5
	str	r2, [sp, #48]
	str	r1, [sp, #52]
	str	fp, [sp, #56]
.L1730:
	ldr	r4, [r7]
	mov	r2, r5
	cmp	r4, #0
	add	r8, r4, #80
	add	r9, r4, #48
	mov	r0, r8
	beq	.L1731
	bl	_raw_spin_lock_irqsave
	ldr	lr, [r4, #180]
	rsb	r1, r5, #4096
	str	r0, [sp, #44]
	ldr	ip, [r4, #180]
	add	r0, r10, r5
	add	r7, r7, #104
	ldr	r3, [r4, #164]
	ldr	r2, [sp, #48]
	and	lr, lr, #1
	ubfx	ip, ip, #1, #1
	ubfx	r3, r3, #1, #1
	str	r3, [sp, #36]
	ldr	fp, [r4, #208]
	ldr	r3, [r7, #-80]
	str	fp, [sp, #32]
	ldr	fp, [r4, #204]
	str	fp, [sp, #28]
	ldr	fp, [r4, #72]
	str	fp, [sp, #24]
	ldr	fp, [r4, #212]
	str	fp, [sp, #20]
	ldr	fp, [r4, #188]
	str	r6, [sp]
	add	r6, r6, #1
	stmib	sp, {r4, lr}
	str	ip, [sp, #12]
	str	fp, [sp, #16]
	bl	scnprintf
	add	r5, r0, r5
	ldr	r1, [sp, #44]
	mov	r0, r8
	bl	_raw_spin_unlock_irqrestore
	mov	r0, r9
	bl	_raw_spin_lock_irqsave
	ldr	ip, [r4, #164]
	rsb	r1, r5, #4096
	mov	r8, r0
	ldr	r3, [r4, #192]
	add	r0, r10, r5
	ldr	r2, [sp, #52]
	ubfx	ip, ip, #2, #1
	str	ip, [sp, #16]
	ldr	ip, [r4, #216]
	str	ip, [sp, #12]
	ldr	ip, [r4, #200]
	str	ip, [sp, #8]
	ldr	ip, [r4, #196]
	str	ip, [sp, #4]
	ldr	ip, [r4, #40]
	str	ip, [sp]
	bl	scnprintf
	add	r5, r5, r0
	mov	r1, r8
	mov	r0, r9
	bl	_raw_spin_unlock_irqrestore
	ldr	r3, [sp, #56]
	mov	r2, r5
	ldr	r3, [r3, #1456]
	cmp	r3, r6
	bhi	.L1730
.L1733:
	str	r2, [sp]
	mov	r3, r10
	ldrd	r0, [sp, #60]
	ldr	r2, [sp, #68]
	bl	simple_read_from_buffer
	mov	r4, r0
	mov	r0, r10
	bl	kfree
.L1727:
	mov	r0, r4
	add	sp, sp, #76
	@ sp needed
	ldrd	r4, [sp]
	ldrd	r6, [sp, #8]
	ldrd	r8, [sp, #16]
	ldrd	r10, [sp, #24]
	add	sp, sp, #32
	ldr	pc, [sp], #4
.L1731:
	add	r6, r6, #1
	add	r7, r7, #104
	cmp	r6, r3
	bcc	.L1730
	b	.L1733
.L1735:
	mov	r10, #16
	b	.L1728
.L1739:
	mov	r2, r3
	b	.L1733
.L1738:
	mvn	r4, #11
	b	.L1727
.L1741:
	.align	2
.L1740:
	.word	.LANCHOR1+1460
	.fnend
	.size	ghsic_data_read_stats, .-ghsic_data_read_stats
	.align	2
	.syntax unified
	.arm
	.fpu softvfp
	.type	ghsuart_ctrl_read_stats, %function
ghsuart_ctrl_read_stats:
	.fnstart
	@ args = 0, pretend = 0, frame = 24
	@ frame_needed = 0, uses_anonymous_args = 0
	movw	r0, #:lower16:kmalloc_caches
	strd	r4, [sp, #-36]!
	.save {r4, r5, r6, r7, r8, r9, r10, fp, lr}
	movt	r0, #:upper16:kmalloc_caches
	strd	r6, [sp, #8]
	strd	r8, [sp, #16]
	strd	r10, [sp, #24]
	str	lr, [sp, #32]
	ldr	r0, [r0, #40]
	.pad #52
	sub	sp, sp, #52
	str	r1, [sp, #36]
	strd	r2, [sp, #40]
	cmp	r0, #0
	beq	.L1749
	mov	r2, #1024
	movw	r1, #32976
	bl	kmem_cache_alloc_trace
	subs	r8, r0, #0
	beq	.L1758
.L1743:
	movw	r6, #:lower16:.LANCHOR1
	movt	r6, #:upper16:.LANCHOR1
	ldr	r2, [r6, #1876]
	cmp	r2, #0
	beq	.L1759
	mov	r4, #0
	movw	r10, #:lower16:.LC116
	str	r6, [sp, #28]
	movw	r9, #:lower16:.LC115
	movw	fp, #:lower16:.LC121
	movt	r9, #:upper16:.LC115
	mov	r5, r4
	movt	r10, #:upper16:.LC116
	movt	fp, #:upper16:.LC121
	str	r9, [sp, #32]
.L1747:
	mov	r3, #84
	ldr	r0, .L1760
	mov	r1, r4
	mul	r3, r3, r5
	ldr	r9, [r3, r0]
	cmp	r9, #0
	add	r6, r9, #8
	mov	r0, r6
	beq	.L1745
	bl	_raw_spin_lock_irqsave
	ldr	ip, [r9, #92]
	mov	r3, r5
	mov	r7, r0
	ldr	r2, [r9, #96]
	add	r0, r8, r4
	ldr	r1, [r9, #100]
	ldr	lr, [r9, #104]
	str	r9, [sp]
	ldr	r9, [sp, #32]
	cmp	ip, #0
	moveq	r9, r10
	stmib	sp, {r1, r2, lr}
	mov	r2, fp
	rsb	r1, r4, #1024
	str	r9, [sp, #16]
	bl	scnprintf
	add	r4, r4, r0
	mov	r1, r7
	mov	r0, r6
	bl	_raw_spin_unlock_irqrestore
	ldr	r3, [sp, #28]
	mov	r1, r4
	ldr	r2, [r3, #1876]
.L1745:
	add	r5, r5, #1
	cmp	r5, r2
	bcc	.L1747
.L1748:
	str	r1, [sp]
	mov	r3, r8
	ldr	r0, [sp, #36]
	ldr	r1, [sp, #40]
	ldr	r2, [sp, #44]
	bl	simple_read_from_buffer
	mov	r4, r0
	mov	r0, r8
	bl	kfree
.L1742:
	mov	r0, r4
	add	sp, sp, #52
	@ sp needed
	ldrd	r4, [sp]
	ldrd	r6, [sp, #8]
	ldrd	r8, [sp, #16]
	ldrd	r10, [sp, #24]
	add	sp, sp, #32
	ldr	pc, [sp], #4
.L1749:
	mov	r8, #16
	b	.L1743
.L1759:
	mov	r1, r2
	b	.L1748
.L1758:
	mvn	r4, #11
	b	.L1742
.L1761:
	.align	2
.L1760:
	.word	.LANCHOR1+1880
	.fnend
	.size	ghsuart_ctrl_read_stats, .-ghsuart_ctrl_read_stats
	.align	2
	.syntax unified
	.arm
	.fpu softvfp
	.type	ghsuart_data_read_stats, %function
ghsuart_data_read_stats:
	.fnstart
	@ args = 0, pretend = 0, frame = 32
	@ frame_needed = 0, uses_anonymous_args = 0
	movw	r0, #:lower16:kmalloc_caches
	strd	r4, [sp, #-36]!
	.save {r4, r5, r6, r7, r8, r9, r10, fp, lr}
	movt	r0, #:upper16:kmalloc_caches
	strd	r6, [sp, #8]
	strd	r8, [sp, #16]
	strd	r10, [sp, #24]
	str	lr, [sp, #32]
	ldr	r0, [r0, #40]
	.pad #76
	sub	sp, sp, #76
	str	r1, [sp, #60]
	strd	r2, [sp, #64]
	cmp	r0, #0
	beq	.L1770
	mov	r2, #1024
	movw	r1, #32976
	bl	kmem_cache_alloc_trace
	subs	r8, r0, #0
	beq	.L1773
.L1763:
	movw	fp, #:lower16:.LANCHOR1
	movt	fp, #:upper16:.LANCHOR1
	ldr	r3, [fp, #2048]
	cmp	r3, #0
	beq	.L1768
	ldr	r7, .L1774
	mov	r5, #0
	movw	r1, #:lower16:.LC122
	movw	r0, #:lower16:.LC123
	movt	r1, #:upper16:.LC122
	movt	r0, #:upper16:.LC123
	mov	r2, r3
	mov	r6, r5
	str	r1, [sp, #48]
	str	r0, [sp, #52]
	str	fp, [sp, #56]
.L1765:
	ldr	r4, [r7]
	mov	r3, r5
	cmp	r4, #0
	add	r9, r4, #104
	add	r10, r4, #72
	mov	r0, r9
	beq	.L1766
	bl	_raw_spin_lock_irqsave
	ldr	lr, [r4, #188]
	str	r0, [sp, #44]
	add	r0, r8, r5
	ldr	ip, [r4, #188]
	add	r7, r7, #84
	ldr	r1, [r4, #188]
	ldr	r2, [r4, #184]
	and	lr, lr, #1
	ldr	r3, [r7, #-60]
	ubfx	ip, ip, #1, #1
	ubfx	r1, r1, #2, #1
	ubfx	r2, r2, #1, #1
	str	r2, [sp, #32]
	ldr	r2, [r4, #96]
	str	r2, [sp, #28]
	ldr	fp, [r4, #212]
	ldr	r2, [sp, #48]
	str	fp, [sp, #24]
	ldr	fp, [r4, #204]
	str	r6, [sp]
	add	r6, r6, #1
	stmib	sp, {r4, lr}
	str	ip, [sp, #12]
	str	r1, [sp, #16]
	rsb	r1, r5, #1024
	str	fp, [sp, #20]
	bl	scnprintf
	add	r5, r0, r5
	ldr	r1, [sp, #44]
	mov	r0, r9
	bl	_raw_spin_unlock_irqrestore
	mov	r0, r10
	bl	_raw_spin_lock_irqsave
	ldr	ip, [r4, #184]
	rsb	r1, r5, #1024
	mov	r9, r0
	ldr	r3, [r4, #208]
	add	r0, r8, r5
	ldr	r2, [sp, #52]
	ubfx	ip, ip, #2, #1
	str	ip, [sp, #4]
	ldr	ip, [r4, #64]
	str	ip, [sp]
	bl	scnprintf
	add	r5, r5, r0
	mov	r1, r9
	mov	r0, r10
	bl	_raw_spin_unlock_irqrestore
	ldr	r3, [sp, #56]
	ldr	r2, [r3, #2048]
	mov	r3, r5
	cmp	r2, r6
	bhi	.L1765
.L1768:
	str	r3, [sp]
	ldrd	r0, [sp, #60]
	mov	r3, r8
	ldr	r2, [sp, #68]
	bl	simple_read_from_buffer
	mov	r4, r0
	mov	r0, r8
	bl	kfree
.L1762:
	mov	r0, r4
	add	sp, sp, #76
	@ sp needed
	ldrd	r4, [sp]
	ldrd	r6, [sp, #8]
	ldrd	r8, [sp, #16]
	ldrd	r10, [sp, #24]
	add	sp, sp, #32
	ldr	pc, [sp], #4
.L1766:
	add	r6, r6, #1
	add	r7, r7, #84
	cmp	r6, r2
	bcc	.L1765
	b	.L1768
.L1770:
	mov	r8, #16
	b	.L1763
.L1773:
	mvn	r4, #11
	b	.L1762
.L1775:
	.align	2
.L1774:
	.word	.LANCHOR1+2052
	.fnend
	.size	ghsuart_data_read_stats, .-ghsuart_data_read_stats
	.align	2
	.syntax unified
	.arm
	.fpu softvfp
	.type	debug_read_stats, %function
debug_read_stats:
	.fnstart
	@ args = 0, pretend = 0, frame = 0
	@ frame_needed = 0, uses_anonymous_args = 0
	strd	r4, [sp, #-36]!
	.save {r4, r5, r6, r7, r8, r9, r10, fp, lr}
	strd	r6, [sp, #8]
	movw	r6, #:lower16:.LANCHOR0
	movt	r6, #:upper16:.LANCHOR0
	strd	r8, [sp, #16]
	mov	r9, r1
	ldr	r4, [r6]
	strd	r10, [sp, #24]
	mov	r10, r2
	str	lr, [sp, #32]
	mov	fp, r3
	.pad #28
	sub	sp, sp, #28
	cmp	r6, r4
	moveq	lr, #0
	beq	.L1778
	movw	r8, #:lower16:debug_buffer
	movw	r7, #:lower16:.LC124
	sub	r4, r4, #4
	movt	r8, #:upper16:debug_buffer
	movt	r7, #:upper16:.LC124
	mov	r5, #0
.L1777:
	ldr	ip, [r4, #20]
	rsb	r1, r5, #4096
	add	r0, r8, r5
	mov	r2, r7
	mov	lr, r5
	cmp	ip, #0
	beq	.L1779
	ldr	lr, [ip, #128]
	ldr	r3, [r4]
	str	lr, [sp, #16]
	ldr	lr, [ip, #124]
	str	lr, [sp, #12]
	ldr	lr, [ip, #120]
	str	lr, [sp, #8]
	ldr	lr, [ip, #76]
	ldr	lr, [lr, #4]
	str	lr, [sp, #4]
	ldr	ip, [ip, #80]
	ldr	ip, [ip, #4]
	str	ip, [sp]
	bl	scnprintf
	ldr	r4, [r4, #4]
	add	r5, r5, r0
	mov	lr, r5
	cmp	r6, r4
	sub	r4, r4, #4
	bne	.L1777
.L1778:
	movw	r3, #:lower16:debug_buffer
	mov	r2, fp
	str	lr, [sp]
	mov	r1, r10
	mov	r0, r9
	movt	r3, #:upper16:debug_buffer
	bl	simple_read_from_buffer
	add	sp, sp, #28
	@ sp needed
	ldrd	r4, [sp]
	ldrd	r6, [sp, #8]
	ldrd	r8, [sp, #16]
	ldrd	r10, [sp, #24]
	add	sp, sp, #32
	ldr	pc, [sp], #4
.L1779:
	ldr	r4, [r4, #4]
	cmp	r6, r4
	sub	r4, r4, #4
	bne	.L1777
	b	.L1778
	.fnend
	.size	debug_read_stats, .-debug_read_stats
	.section	.exit.text,"ax",%progbits
	.align	2
	.syntax unified
	.arm
	.fpu softvfp
	.type	gether_exit, %function
gether_exit:
	.fnstart
	@ args = 0, pretend = 0, frame = 0
	@ frame_needed = 0, uses_anonymous_args = 0
	@ link register save eliminated.
	movw	r3, #:lower16:.LANCHOR1
	movt	r3, #:upper16:.LANCHOR1
	ldr	r0, [r3, #3448]
	b	destroy_workqueue
	.fnend
	.size	gether_exit, .-gether_exit
	.text
	.align	2
	.syntax unified
	.arm
	.fpu softvfp
	.type	qdss_function_cleanup, %function
qdss_function_cleanup:
	.fnstart
	@ args = 0, pretend = 0, frame = 0
	@ frame_needed = 0, uses_anonymous_args = 0
	strd	r4, [sp, #-32]!
	.save {r4, r5, r6, r7, r8, r9, r10, lr}
	strd	r6, [sp, #8]
	strd	r8, [sp, #16]
	movw	r8, #:lower16:.LANCHOR0
	movt	r8, #:upper16:.LANCHOR0
	str	r10, [sp, #24]
	ldr	r4, [r8, #312]!
	str	lr, [sp, #28]
	cmp	r4, r8
	ldr	r5, [r4]
	beq	.L1784
	ldr	r6, .L1791
	mov	r10, #256
	mov	r9, #512
	b	.L1785
.L1787:
	bl	_raw_spin_unlock_irqrestore
	cmp	r5, r8
	ldr	r3, [r5]
	beq	.L1784
.L1788:
	mov	r4, r5
	mov	r5, r3
.L1785:
	mov	r0, r6
	bl	_raw_spin_lock_irqsave
	mov	r7, r0
	ldr	r0, [r4, #80]
	bl	destroy_workqueue
	ldr	r3, [r4, #12]
	mov	r1, r7
	mov	r0, r6
	cmp	r3, #0
	bne	.L1787
	ldrd	r2, [r4]
	sub	r0, r4, #108
	str	r3, [r2, #4]
	str	r2, [r3]
	str	r10, [r4]
	str	r9, [r4, #4]
	bl	kfree
	mov	r1, r7
	mov	r0, r6
	bl	_raw_spin_unlock_irqrestore
	cmp	r5, r8
	ldr	r3, [r5]
	bne	.L1788
.L1784:
	ldrd	r4, [sp]
	ldrd	r6, [sp, #8]
	ldrd	r8, [sp, #16]
	ldr	r10, [sp, #24]
	add	sp, sp, #28
	ldr	pc, [sp], #4
.L1792:
	.align	2
.L1791:
	.word	.LANCHOR1+3452
	.fnend
	.size	qdss_function_cleanup, .-qdss_function_cleanup
	.align	2
	.syntax unified
	.arm
	.fpu softvfp
	.type	rmnet_smd_command_complete, %function
rmnet_smd_command_complete:
	.fnstart
	@ args = 0, pretend = 0, frame = 0
	@ frame_needed = 0, uses_anonymous_args = 0
	strd	r4, [sp, #-24]!
	.save {r4, r5, r6, r7, r8, lr}
	strd	r6, [sp, #8]
	str	r8, [sp, #16]
	str	lr, [sp, #20]
	ldr	r4, [r1, #32]
	ldr	r2, [r1, #44]
	ldr	r8, [r4, #76]
	cmp	r2, #0
	blt	.L1801
	add	r7, r4, #156
	mov	r6, r1
	mov	r0, r7
	bl	_raw_spin_lock
	ldr	r2, [r4, #300]
	ldr	r3, [r4, #440]
	cmp	r2, #0
	add	r3, r3, #1
	str	r3, [r4, #440]
	beq	.L1802
.L1795:
	mov	r3, r4
	ldr	r5, [r3, #100]!
	cmp	r5, r3
	beq	.L1803
	ldrd	r2, [r5]
	mov	ip, #256
	mov	r1, #512
	mov	r0, r7
	str	r3, [r2, #4]
	str	r2, [r3]
	str	ip, [r5]
	str	r1, [r5, #4]
	bl	_raw_spin_unlock
	ldr	r1, [r6]
	ldr	r2, [r6, #48]
	ldr	r0, [r5, #-8]
	bl	memcpy
	ldr	r3, [r6, #48]
	mov	r0, r7
	str	r3, [r5, #-4]
	bl	_raw_spin_lock
	ldr	r3, [r4, #120]
	add	r2, r4, #116
	mov	r0, r7
	str	r5, [r4, #120]
	strd	r2, [r5]
	str	r5, [r3]
.L1800:
	ldrd	r4, [sp]
	ldrd	r6, [sp, #8]
	ldr	r8, [sp, #16]
	ldr	lr, [sp, #20]
	add	sp, sp, #24
	b	_raw_spin_unlock
.L1802:
	ldr	r0, [r4, #252]
	bl	smd_write_avail
	ldr	r3, [r6, #48]
	cmp	r0, r3
	strcc	r3, [r4, #300]
	bcc	.L1795
	mov	r0, r7
	bl	_raw_spin_unlock
	ldr	r0, [r4, #252]
	ldr	r1, [r6]
	ldr	r2, [r6, #48]
	bl	smd_write
	ldr	r3, [r6, #48]
	cmp	r3, r0
	beq	.L1797
	ldr	r0, [r8]
	movw	r1, #:lower16:.LC126
	movt	r1, #:upper16:.LC126
	add	r0, r0, #32
	bl	dev_err
.L1797:
	mov	r0, r7
	bl	_raw_spin_lock
	ldr	r3, [r4, #444]
	mov	r0, r7
	add	r3, r3, #1
	str	r3, [r4, #444]
	b	.L1800
.L1801:
	ldr	r0, [r8]
	movw	r1, #:lower16:.LC125
	ldrd	r4, [sp]
	movt	r1, #:upper16:.LC125
	ldrd	r6, [sp, #8]
	ldr	r8, [sp, #16]
	ldr	lr, [sp, #20]
	add	r0, r0, #32
	add	sp, sp, #24
	b	dev_err
.L1803:
	mov	r0, r7
	bl	_raw_spin_unlock
	ldr	r0, [r8]
	movw	r1, #:lower16:.LC127
	ldrd	r4, [sp]
	movt	r1, #:upper16:.LC127
	ldrd	r6, [sp, #8]
	ldr	r8, [sp, #16]
	ldr	lr, [sp, #20]
	add	r0, r0, #32
	add	sp, sp, #24
	b	dev_err
	.fnend
	.size	rmnet_smd_command_complete, .-rmnet_smd_command_complete
	.align	2
	.syntax unified
	.arm
	.fpu softvfp
	.type	rmnet_smd_complete_epout, %function
rmnet_smd_complete_epout:
	.fnstart
	@ args = 0, pretend = 0, frame = 0
	@ frame_needed = 0, uses_anonymous_args = 0
	strd	r4, [sp, #-24]!
	.save {r4, r5, r6, r7, r8, lr}
	mov	r5, r1
	strd	r6, [sp, #8]
	add	r7, r1, #36
	str	r8, [sp, #16]
	str	lr, [sp, #20]
	ldr	r4, [r1, #32]
	.pad #8
	sub	sp, sp, #8
	ldr	r3, [r1, #44]
	ldr	r8, [r4, #76]
	add	r6, r4, #156
	cmn	r3, #104
	beq	.L1820
	cmp	r3, #0
	beq	.L1807
	cmn	r3, #108
	beq	.L1820
	ldr	r2, [r0, #4]
	movw	r1, #:lower16:.LC128
	ldr	r0, [r8]
	movt	r1, #:upper16:.LC128
	ldr	lr, [r5, #4]
	ldr	ip, [r5, #48]
	add	r0, r0, #32
	stm	sp, {ip, lr}
	bl	dev_err
.L1820:
	mov	r0, r6
	bl	_raw_spin_lock
	add	r2, r4, #140
	mov	r0, r6
	ldr	r3, [r4, #144]
	str	r7, [r4, #144]
.L1819:
	strd	r2, [r5, #36]
	str	r7, [r3]
	add	sp, sp, #8
	@ sp needed
	ldrd	r4, [sp]
	ldrd	r6, [sp, #8]
	ldr	r8, [sp, #16]
	ldr	lr, [sp, #20]
	add	sp, sp, #24
	b	_raw_spin_unlock
.L1807:
	mov	r0, r6
	bl	_raw_spin_lock
	ldr	r2, [r4, #364]
	ldr	r3, [r4, #424]
	cmp	r2, #0
	add	r3, r3, #1
	str	r3, [r4, #424]
	bne	.L1808
	ldr	r0, [r4, #316]
	bl	smd_write_avail
	ldr	r3, [r5, #48]
	cmp	r0, r3
	strcc	r3, [r4, #364]
	bcc	.L1808
	mov	r0, r6
	bl	_raw_spin_unlock
	ldr	r0, [r4, #316]
	ldr	r1, [r5]
	ldr	r2, [r5, #48]
	bl	smd_write
	ldr	r3, [r5, #48]
	cmp	r3, r0
	beq	.L1810
	ldr	r0, [r8]
	movw	r1, #:lower16:.LC129
	movt	r1, #:upper16:.LC129
	add	r0, r0, #32
	bl	dev_err
.L1810:
	mov	r0, r6
	bl	_raw_spin_lock
	ldr	r2, [r4, #144]
	add	r1, r4, #140
	str	r7, [r4, #144]
	ldr	r3, [r4, #428]
	mov	r0, r6
	add	r3, r3, #1
	str	r3, [r4, #428]
	str	r1, [r5, #36]
	str	r2, [r5, #40]
	str	r7, [r2]
	bl	_raw_spin_unlock
	mov	r0, r4
	add	sp, sp, #8
	@ sp needed
	ldrd	r4, [sp]
	ldrd	r6, [sp, #8]
	ldr	r8, [sp, #16]
	ldr	lr, [sp, #20]
	add	sp, sp, #24
	b	rmnet_smd_start_rx
.L1808:
	ldr	r3, [r4, #152]
	add	r2, r4, #148
	mov	r0, r6
	str	r7, [r4, #152]
	b	.L1819
	.fnend
	.size	rmnet_smd_complete_epout, .-rmnet_smd_complete_epout
	.align	2
	.syntax unified
	.arm
	.fpu softvfp
	.type	rmnet_data_rx_tlet, %function
rmnet_data_rx_tlet:
	.fnstart
	@ args = 0, pretend = 0, frame = 8
	@ frame_needed = 0, uses_anonymous_args = 0
	strd	r4, [sp, #-36]!
	.save {r4, r5, r6, r7, r8, r9, r10, fp, lr}
	mov	r5, r0
	strd	r6, [sp, #8]
	add	r6, r0, #156
	add	r7, r0, #148
	strd	r8, [sp, #16]
	strd	r10, [sp, #24]
	str	lr, [sp, #32]
	ldr	r3, [r0, #76]
	.pad #12
	sub	sp, sp, #12
	mov	r0, r6
	str	r3, [sp, #4]
	bl	_raw_spin_lock_irqsave
	ldr	r4, [r5, #148]
	mov	fp, r0
	cmp	r7, r4
	beq	.L1826
	add	r3, r5, #140
	mov	r9, #256
	mov	r8, #512
	str	r3, [sp]
	b	.L1822
.L1824:
	ldrd	r2, [r4]
	str	r3, [r2, #4]
	str	r2, [r3]
	str	r9, [r4]
	str	r8, [r4, #4]
	bl	_raw_spin_unlock_irqrestore
	ldr	r1, [r4, #-36]
	ldr	r2, [r4, #12]
	ldr	r0, [r5, #316]
	bl	smd_write
	mov	r10, r0
	mov	r0, r6
	bl	_raw_spin_lock_irqsave
	ldr	r1, [r4, #12]
	mov	fp, r0
	cmp	r1, r10
	bne	.L1829
	ldr	r1, [r5, #144]
	str	r4, [r5, #144]
	ldr	r3, [r5, #428]
	add	r3, r3, #1
	str	r3, [r5, #428]
	ldr	r3, [sp]
	str	r3, [r4]
	str	r1, [r4, #4]
	str	r4, [r1]
	ldr	r4, [r5, #148]
	cmp	r4, r7
	beq	.L1826
.L1822:
	ldr	r0, [r5, #316]
	bl	smd_write_avail
	ldr	r3, [r4, #12]
	mov	r1, fp
	cmp	r0, r3
	mov	r0, r6
	bcs	.L1824
	str	r3, [r5, #364]
.L1823:
	mov	r0, r6
	mov	r1, fp
	bl	_raw_spin_unlock_irqrestore
	mov	r0, r5
	add	sp, sp, #12
	@ sp needed
	ldrd	r4, [sp]
	ldrd	r6, [sp, #8]
	ldrd	r8, [sp, #16]
	ldrd	r10, [sp, #24]
	ldr	lr, [sp, #32]
	add	sp, sp, #36
	b	rmnet_smd_start_rx
.L1826:
	mov	r3, #0
	str	r3, [r5, #364]
	b	.L1823
.L1829:
	ldr	r3, [sp, #4]
	movw	r1, #:lower16:.LC130
	movt	r1, #:upper16:.LC130
	ldr	r0, [r3]
	add	r0, r0, #32
	bl	dev_err
	b	.L1823
	.fnend
	.size	rmnet_data_rx_tlet, .-rmnet_data_rx_tlet
	.align	2
	.syntax unified
	.arm
	.fpu softvfp
	.type	rmnet_control_rx_tlet, %function
rmnet_control_rx_tlet:
	.fnstart
	@ args = 0, pretend = 0, frame = 8
	@ frame_needed = 0, uses_anonymous_args = 0
	strd	r4, [sp, #-36]!
	.save {r4, r5, r6, r7, r8, r9, r10, fp, lr}
	mov	r5, r0
	strd	r6, [sp, #8]
	add	r6, r0, #156
	add	r7, r0, #116
	strd	r8, [sp, #16]
	strd	r10, [sp, #24]
	str	lr, [sp, #32]
	ldr	r3, [r0, #76]
	.pad #12
	sub	sp, sp, #12
	mov	r0, r6
	str	r3, [sp, #4]
	bl	_raw_spin_lock_irqsave
	ldr	r4, [r5, #116]
	mov	fp, r0
	cmp	r7, r4
	beq	.L1835
	add	r3, r5, #100
	mov	r9, #256
	mov	r8, #512
	str	r3, [sp]
	b	.L1831
.L1833:
	ldrd	r2, [r4]
	str	r3, [r2, #4]
	str	r2, [r3]
	str	r9, [r4]
	str	r8, [r4, #4]
	ldr	r3, [r5, #440]
	add	r3, r3, #1
	str	r3, [r5, #440]
	bl	_raw_spin_unlock_irqrestore
	ldmdb	r4, {r1, r2}
	ldr	r0, [r5, #252]
	bl	smd_write
	mov	r10, r0
	mov	r0, r6
	bl	_raw_spin_lock_irqsave
	ldr	r1, [r4, #-4]
	mov	fp, r0
	cmp	r1, r10
	bne	.L1838
	ldr	r1, [r5, #104]
	str	r4, [r5, #104]
	ldr	r3, [r5, #444]
	add	r3, r3, #1
	str	r3, [r5, #444]
	ldr	r3, [sp]
	str	r3, [r4]
	str	r1, [r4, #4]
	str	r4, [r1]
	ldr	r4, [r5, #116]
	cmp	r4, r7
	beq	.L1835
.L1831:
	ldr	r0, [r5, #252]
	bl	smd_write_avail
	ldr	r3, [r4, #-4]
	mov	r1, fp
	cmp	r0, r3
	mov	r0, r6
	bge	.L1833
	str	r3, [r5, #300]
.L1832:
	mov	r1, fp
	mov	r0, r6
	add	sp, sp, #12
	@ sp needed
	ldrd	r4, [sp]
	ldrd	r6, [sp, #8]
	ldrd	r8, [sp, #16]
	ldrd	r10, [sp, #24]
	ldr	lr, [sp, #32]
	add	sp, sp, #36
	b	_raw_spin_unlock_irqrestore
.L1835:
	mov	r3, #0
	str	r3, [r5, #300]
	b	.L1832
.L1838:
	ldr	r3, [sp, #4]
	movw	r1, #:lower16:.LC126
	movt	r1, #:upper16:.LC126
	ldr	r0, [r3]
	add	r0, r0, #32
	bl	dev_err
	b	.L1832
	.fnend
	.size	rmnet_control_rx_tlet, .-rmnet_control_rx_tlet
	.align	2
	.syntax unified
	.arm
	.fpu softvfp
	.type	gsmd_rx_push, %function
gsmd_rx_push:
	.fnstart
	@ args = 0, pretend = 0, frame = 8
	@ frame_needed = 0, uses_anonymous_args = 0
	strd	r4, [sp, #-36]!
	.save {r4, r5, r6, r7, r8, r9, r10, fp, lr}
	mov	r5, r0
	strd	r6, [sp, #8]
	sub	r7, r0, #24
	strd	r8, [sp, #16]
	strd	r10, [sp, #24]
	sub	r10, r0, #28
	str	lr, [sp, #32]
	ldr	r6, [r0, #44]
	.pad #20
	sub	sp, sp, #20
	mov	r0, r7
	bl	_raw_spin_lock_irq
	ldr	r0, [r6]
	cmp	r0, #0
	beq	.L1842
	ldr	r4, [r5, #-8]
	sub	r9, r5, #8
	cmp	r9, r4
	beq	.L1842
	movw	r8, #:lower16:.LC131
	mov	fp, #0
	movt	r8, #:upper16:.LC131
.L1848:
	ldr	r3, [r4, #8]
	cmn	r3, #108
	beq	.L1842
	cmp	r3, #0
	bne	.L1875
.L1843:
	bl	smd_write_avail
	cmp	r0, #0
	beq	.L1842
	ldr	r3, [r4, #12]
	cmp	r3, #0
	beq	.L1844
	ldr	r2, [r5, #-20]
	ldr	r1, [r4, #-36]
	ldr	r0, [r6]
	cmp	r2, #0
	subne	r3, r3, r2
	addne	r1, r1, r2
	mov	r2, r3
	str	r3, [sp, #12]
	bl	smd_write
	cmp	r0, #0
	ldr	r3, [sp, #12]
	blt	.L1876
	cmp	r0, r3
	bne	.L1877
	ldr	r2, [r5, #136]
	add	r3, r2, r3
	str	r3, [r5, #136]
.L1844:
	str	fp, [r5, #-20]
	ldm	r4, {r1, r2}
	mov	r3, r5
	str	r2, [r1, #4]
	str	r1, [r2]
	ldr	r2, [r3, #-16]!
	str	r4, [r2, #4]
	strd	r2, [r4]
	str	r4, [r5, #-16]
	ldr	r0, [r6]
	cmp	r0, #0
	beq	.L1842
	ldr	r4, [r5, #-8]
	cmp	r9, r4
	bne	.L1848
.L1842:
	mov	r0, r7
	bl	_raw_spin_unlock_irq
	mov	r0, r10
	add	sp, sp, #20
	@ sp needed
	ldrd	r4, [sp]
	ldrd	r6, [sp, #8]
	ldrd	r8, [sp, #16]
	ldrd	r10, [sp, #24]
	ldr	lr, [sp, #32]
	add	sp, sp, #36
	b	gsmd_start_rx
.L1877:
	ldr	r3, [r5, #-20]
	add	r2, r3, r0
	str	r2, [r5, #-20]
	b	.L1842
.L1875:
	str	r3, [sp]
	mov	r2, r10
	ldr	r1, .L1878
	mov	r0, r8
	ldr	r3, [r5, #-28]
	bl	printk
	ldr	r0, [r6]
	b	.L1843
.L1876:
	mov	r2, r0
	movw	r0, #:lower16:.LC132
	ldr	r1, .L1878
	movt	r0, #:upper16:.LC132
	bl	printk
	b	.L1842
.L1879:
	.align	2
.L1878:
	.word	.LANCHOR2+716
	.fnend
	.size	gsmd_rx_push, .-gsmd_rx_push
	.align	2
	.syntax unified
	.arm
	.fpu softvfp
	.type	grmnet_ctrl_smd_write_w, %function
grmnet_ctrl_smd_write_w:
	.fnstart
	@ args = 0, pretend = 0, frame = 0
	@ frame_needed = 0, uses_anonymous_args = 0
	strd	r4, [sp, #-36]!
	.save {r4, r5, r6, r7, r8, r9, r10, fp, lr}
	mov	r5, r0
	strd	r6, [sp, #8]
	strd	r8, [sp, #16]
	strd	r10, [sp, #24]
	str	lr, [sp, #32]
	ldr	r6, [r0, #16]
	.pad #4
	sub	sp, sp, #4
	add	r6, r6, #108
	mov	r0, r6
	bl	_raw_spin_lock_irqsave
	mov	r7, r0
	ldr	r0, [r5, #-68]
	cmp	r0, #0
	beq	.L1881
	ldr	r4, [r5, #-28]
	sub	r8, r5, #28
	cmp	r8, r4
	beq	.L1881
	mov	r10, #256
	b	.L1882
.L1890:
	ldrd	r2, [r4]
	str	r3, [r2, #4]
	str	r2, [r3]
	mov	r3, #512
	str	r10, [r4]
	str	r3, [r4, #4]
	bl	_raw_spin_unlock_irqrestore
	ldmdb	r4, {r1, r2}
	ldr	r0, [r5, #-68]
	bl	smd_write
	mov	r9, r0
	mov	r0, r6
	bl	_raw_spin_lock_irqsave
	ldr	r3, [r4, #-4]
	mov	r7, r0
	cmp	r3, r9
	bne	.L1889
	ldr	r0, [r4, #-8]
	bl	kfree
	mov	r0, fp
	bl	kfree
	ldr	r0, [r5, #-68]
	ldr	r3, [r5, #24]
	cmp	r0, #0
	add	r3, r3, #1
	str	r3, [r5, #24]
	beq	.L1881
	ldr	r4, [r5, #-28]
	cmp	r8, r4
	beq	.L1881
.L1882:
	bl	smd_write_avail
	ldr	r3, [r4, #-4]
	sub	fp, r4, #8
	mov	r1, r7
	cmp	r0, r3
	mov	r0, r6
	bge	.L1890
.L1881:
	mov	r1, r7
	mov	r0, r6
	add	sp, sp, #4
	@ sp needed
	ldrd	r4, [sp]
	ldrd	r6, [sp, #8]
	ldrd	r8, [sp, #16]
	ldrd	r10, [sp, #24]
	ldr	lr, [sp, #32]
	add	sp, sp, #36
	b	_raw_spin_unlock_irqrestore
.L1889:
	movw	r0, #:lower16:.LC133
	mov	r2, r9
	ldr	r1, .L1891
	movt	r0, #:upper16:.LC133
	bl	printk
	ldr	r0, [r4, #-8]
	bl	kfree
	mov	r0, fp
	bl	kfree
	b	.L1881
.L1892:
	.align	2
.L1891:
	.word	.LANCHOR2+732
	.fnend
	.size	grmnet_ctrl_smd_write_w, .-grmnet_ctrl_smd_write_w
	.align	2
	.syntax unified
	.arm
	.fpu softvfp
	.type	rmnet_mux_smd_data_rx_tlet, %function
rmnet_mux_smd_data_rx_tlet:
	.fnstart
	@ args = 0, pretend = 0, frame = 8
	@ frame_needed = 0, uses_anonymous_args = 0
	strd	r4, [sp, #-36]!
	.save {r4, r5, r6, r7, r8, r9, r10, fp, lr}
	mov	r5, r0
	strd	r6, [sp, #8]
	add	r6, r0, #356
	strd	r8, [sp, #16]
	strd	r10, [sp, #24]
	str	lr, [sp, #32]
	ldr	r3, [r0, #76]
	.pad #12
	sub	sp, sp, #12
	mov	r0, r6
	str	r3, [sp, #4]
	bl	_raw_spin_lock_irqsave
	ldr	r3, [r5, #360]
	mov	fp, r0
	cmp	r3, #0
	beq	.L1894
	ldr	r4, [r5, #112]
	add	r7, r5, #112
	cmp	r7, r4
	beq	.L1895
	add	r3, r5, #104
	mov	r9, #256
	mov	r8, #512
	str	r3, [sp]
	b	.L1896
.L1897:
	ldrd	r2, [r4]
	str	r3, [r2, #4]
	str	r2, [r3]
	str	r9, [r4]
	str	r8, [r4, #4]
	bl	_raw_spin_unlock_irqrestore
	ldr	r1, [r4, #-36]
	ldr	r2, [r4, #12]
	ldr	r0, [r5, #120]
	bl	smd_write
	mov	r10, r0
	mov	r0, r6
	bl	_raw_spin_lock_irqsave
	ldr	r1, [r4, #12]
	mov	fp, r0
	cmp	r1, r10
	bne	.L1905
	ldr	r1, [r5, #108]
	str	r4, [r5, #108]
	ldr	r3, [r5, #388]
	add	r3, r3, #1
	str	r3, [r5, #388]
	ldr	r3, [sp]
	str	r3, [r4]
	str	r1, [r4, #4]
	str	r4, [r1]
	ldr	r3, [r5, #360]
	cmp	r3, #0
	beq	.L1894
	ldr	r4, [r5, #112]
	cmp	r4, r7
	beq	.L1895
.L1896:
	ldr	r0, [r5, #120]
	bl	smd_write_avail
	ldr	r3, [r4, #12]
	mov	r1, fp
	cmp	r0, r3
	mov	r0, r6
	bcs	.L1897
	str	r3, [r5, #168]
.L1894:
	mov	r0, r6
	mov	r1, fp
	bl	_raw_spin_unlock_irqrestore
	mov	r0, r5
	add	sp, sp, #12
	@ sp needed
	ldrd	r4, [sp]
	ldrd	r6, [sp, #8]
	ldrd	r8, [sp, #16]
	ldrd	r10, [sp, #24]
	ldr	lr, [sp, #32]
	add	sp, sp, #36
	b	rmnet_mux_smd_start_rx
.L1895:
	mov	r3, #0
	str	r3, [r5, #168]
	b	.L1894
.L1905:
	ldr	r3, [sp, #4]
	movw	r1, #:lower16:.LC134
	movt	r1, #:upper16:.LC134
	ldr	r0, [r3]
	add	r0, r0, #32
	bl	dev_err
	b	.L1894
	.fnend
	.size	rmnet_mux_smd_data_rx_tlet, .-rmnet_mux_smd_data_rx_tlet
	.align	2
	.syntax unified
	.arm
	.fpu softvfp
	.type	rmnet_mux_smd_complete_epout, %function
rmnet_mux_smd_complete_epout:
	.fnstart
	@ args = 0, pretend = 0, frame = 0
	@ frame_needed = 0, uses_anonymous_args = 0
	strd	r4, [sp, #-28]!
	.save {r4, r5, r6, r7, r8, r9, lr}
	mov	r4, r1
	strd	r6, [sp, #8]
	strd	r8, [sp, #16]
	mov	r8, r0
	str	lr, [sp, #24]
	ldr	r5, [r1, #32]
	.pad #12
	sub	sp, sp, #12
	ldr	r3, [r5, #352]
	cmp	r3, #0
	beq	.L1924
	ldr	r3, [r1, #44]
	add	r7, r1, #36
	add	r6, r5, #356
	ldr	r9, [r5, #76]
	cmn	r3, #104
	beq	.L1923
	cmp	r3, #0
	beq	.L1910
	cmn	r3, #108
	beq	.L1923
	ldr	r2, [r0, #4]
	movw	r1, #:lower16:.LC135
	ldr	r0, [r9]
	movt	r1, #:upper16:.LC135
	ldr	lr, [r4, #4]
	ldr	ip, [r4, #48]
	add	r0, r0, #32
	stm	sp, {ip, lr}
	bl	dev_err
.L1923:
	mov	r0, r6
	bl	_raw_spin_lock
	add	r2, r5, #104
	mov	r0, r6
	ldr	r3, [r5, #108]
	str	r7, [r5, #108]
.L1922:
	strd	r2, [r4, #36]
	str	r7, [r3]
	add	sp, sp, #12
	@ sp needed
	ldrd	r4, [sp]
	ldrd	r6, [sp, #8]
	ldrd	r8, [sp, #16]
	ldr	lr, [sp, #24]
	add	sp, sp, #28
	b	_raw_spin_unlock
.L1910:
	mov	r0, r6
	bl	_raw_spin_lock
	ldr	r3, [r5, #168]
	cmp	r3, #0
	bne	.L1911
	ldr	r0, [r5, #120]
	bl	smd_write_avail
	ldr	r3, [r4, #48]
	cmp	r0, r3
	strcc	r3, [r5, #168]
	bcs	.L1925
.L1911:
	ldr	r3, [r5, #116]
	add	r2, r5, #112
	mov	r0, r6
	str	r7, [r5, #116]
	b	.L1922
.L1924:
	ldr	r0, [r1]
	bl	kfree
	ldr	r3, [r8, #8]
	mov	r1, r4
	mov	r0, r8
	ldr	r3, [r3, #12]
	add	sp, sp, #12
	@ sp needed
	ldrd	r4, [sp]
	ldrd	r6, [sp, #8]
	ldrd	r8, [sp, #16]
	ldr	lr, [sp, #24]
	add	sp, sp, #28
	bx	r3	@ indirect register sibling call
.L1925:
	mov	r0, r6
	bl	_raw_spin_unlock
	ldr	r1, [r4]
	ldr	r2, [r4, #48]
	ldr	r0, [r5, #120]
	bl	smd_write
	ldr	r3, [r4, #48]
	cmp	r3, r0
	beq	.L1913
	ldr	r0, [r9]
	movw	r1, #:lower16:.LC136
	movt	r1, #:upper16:.LC136
	add	r0, r0, #32
	bl	dev_err
.L1913:
	ldr	r3, [r5, #388]
	mov	r0, r6
	add	r3, r3, #1
	str	r3, [r5, #388]
	bl	_raw_spin_lock
	ldr	r3, [r5, #108]
	add	r2, r5, #104
	str	r7, [r5, #108]
	mov	r0, r6
	strd	r2, [r4, #36]
	str	r7, [r3]
	bl	_raw_spin_unlock
	mov	r0, r5
	add	sp, sp, #12
	@ sp needed
	ldrd	r4, [sp]
	ldrd	r6, [sp, #8]
	ldrd	r8, [sp, #16]
	ldr	lr, [sp, #24]
	add	sp, sp, #28
	b	rmnet_mux_smd_start_rx
	.fnend
	.size	rmnet_mux_smd_complete_epout, .-rmnet_mux_smd_complete_epout
	.align	2
	.syntax unified
	.arm
	.fpu softvfp
	.type	rmnet_smd_complete_epin, %function
rmnet_smd_complete_epin:
	.fnstart
	@ args = 0, pretend = 0, frame = 0
	@ frame_needed = 0, uses_anonymous_args = 0
	strd	r4, [sp, #-24]!
	.save {r4, r5, r6, r7, r8, lr}
	mov	r5, r1
	strd	r6, [sp, #8]
	add	r6, r1, #36
	str	r8, [sp, #16]
	str	lr, [sp, #20]
	ldr	r4, [r1, #32]
	ldr	r2, [r1, #44]
	add	r8, r4, #132
	add	r7, r4, #156
	cmn	r2, #104
	beq	.L1928
	cmp	r2, #0
	beq	.L1929
	cmn	r2, #108
	beq	.L1928
	ldr	r3, [r4, #76]
	movw	r1, #:lower16:.LC137
	movt	r1, #:upper16:.LC137
	ldr	r0, [r3]
	add	r0, r0, #32
	bl	dev_err
.L1929:
	mov	r0, r7
	bl	_raw_spin_lock
	ldr	r3, [r4, #132]
	cmp	r3, r8
	beq	.L1947
	ldr	r3, [r4, #136]
	str	r6, [r4, #136]
	str	r8, [r5, #36]
	str	r3, [r5, #40]
	str	r6, [r3]
	ldr	r3, [r4, #416]
	add	r3, r3, #1
	str	r3, [r4, #416]
.L1933:
	mov	r0, r7
.L1946:
	ldrd	r4, [sp]
	ldrd	r6, [sp, #8]
	ldr	r8, [sp, #16]
	ldr	lr, [sp, #20]
	add	sp, sp, #24
	b	_raw_spin_unlock
.L1947:
	ldr	r3, [r4, #136]
	str	r6, [r4, #136]
	add	r1, r4, #324
	str	r8, [r5, #36]
	mov	r0, #0
	add	r8, r4, #320
	str	r3, [r5, #40]
	str	r6, [r3]
	ldr	r3, [r4, #416]
	add	r3, r3, #1
	str	r3, [r4, #416]
	bl	_test_and_set_bit
	cmp	r0, #0
	bne	.L1933
	mov	r0, r8
	bl	__tasklet_schedule
	b	.L1933
.L1928:
	mov	r0, r7
	bl	_raw_spin_lock
	ldr	r3, [r4, #136]
	mov	r0, r7
	str	r6, [r4, #136]
	str	r8, [r5, #36]
	str	r3, [r5, #40]
	str	r6, [r3]
	b	.L1946
	.fnend
	.size	rmnet_smd_complete_epin, .-rmnet_smd_complete_epin
	.align	2
	.syntax unified
	.arm
	.fpu softvfp
	.type	rmnet_mux_smd_complete_epin, %function
rmnet_mux_smd_complete_epin:
	.fnstart
	@ args = 0, pretend = 0, frame = 0
	@ frame_needed = 0, uses_anonymous_args = 0
	strd	r4, [sp, #-24]!
	.save {r4, r5, r6, r7, r8, lr}
	mov	r5, r1
	strd	r6, [sp, #8]
	str	r8, [sp, #16]
	str	lr, [sp, #20]
	ldr	r4, [r1, #32]
	ldr	r3, [r4, #352]
	cmp	r3, #0
	beq	.L1967
	ldr	r2, [r1, #44]
	add	r6, r1, #36
	add	r8, r4, #96
	add	r7, r4, #356
	cmn	r2, #104
	beq	.L1951
	cmp	r2, #0
	beq	.L1952
	cmn	r2, #108
	beq	.L1951
	ldr	r3, [r4, #76]
	movw	r1, #:lower16:.LC138
	movt	r1, #:upper16:.LC138
	ldr	r0, [r3]
	add	r0, r0, #32
	bl	dev_err
.L1952:
	mov	r0, r7
	bl	_raw_spin_lock
	ldr	r3, [r4, #96]
	cmp	r3, r8
	ldr	r3, [r4, #100]
	str	r6, [r4, #100]
	beq	.L1953
	str	r8, [r5, #36]
	str	r3, [r5, #40]
	str	r6, [r3]
.L1954:
	mov	r0, r7
.L1966:
	ldrd	r4, [sp]
	ldrd	r6, [sp, #8]
	ldr	r8, [sp, #16]
	ldr	lr, [sp, #20]
	add	sp, sp, #24
	b	_raw_spin_unlock
.L1967:
	mov	r6, r0
	ldr	r0, [r1]
	bl	kfree
	ldr	r3, [r6, #8]
	mov	r1, r5
	mov	r0, r6
	ldrd	r4, [sp]
	ldrd	r6, [sp, #8]
	ldr	r8, [sp, #16]
	ldr	lr, [sp, #20]
	add	sp, sp, #24
	ldr	r3, [r3, #12]
	bx	r3	@ indirect register sibling call
.L1951:
	mov	r0, r7
	bl	_raw_spin_lock
	ldr	r3, [r4, #100]
	mov	r0, r7
	str	r6, [r4, #100]
	str	r8, [r5, #36]
	str	r3, [r5, #40]
	str	r6, [r3]
	b	.L1966
.L1953:
	add	r1, r4, #128
	str	r8, [r5, #36]
	mov	r0, #0
	str	r3, [r5, #40]
	add	r4, r4, #124
	str	r6, [r3]
	bl	_test_and_set_bit
	cmp	r0, #0
	bne	.L1954
	mov	r0, r4
	bl	__tasklet_schedule
	b	.L1954
	.fnend
	.size	rmnet_mux_smd_complete_epin, .-rmnet_mux_smd_complete_epin
	.align	2
	.syntax unified
	.arm
	.fpu softvfp
	.type	rmnet_smd_setup, %function
rmnet_smd_setup:
	.fnstart
	@ args = 0, pretend = 0, frame = 8
	@ frame_needed = 0, uses_anonymous_args = 0
	strd	r4, [sp, #-36]!
	.save {r4, r5, r6, r7, r8, r9, r10, fp, lr}
	strd	r6, [sp, #8]
	strd	r8, [sp, #16]
	strd	r10, [sp, #24]
	str	lr, [sp, #32]
	ldr	r2, [r0, #20]
	.pad #28
	sub	sp, sp, #28
	ldr	r3, [r0, #160]
	ldrh	r9, [r1, #2]	@ unaligned
	ldrh	r6, [r1, #6]	@ unaligned
	ldr	r8, [r2, #24]
	cmp	r3, #0
	ldr	r7, [r8, #4]
	beq	.L1979
	ldrh	r3, [r1]	@ unaligned
	movw	r2, #8482
	mov	r5, r1
	mov	r4, r0
	rev16	r3, r3
	uxth	r3, r3
	cmp	r3, r2
	beq	.L1970
	movw	r2, #41217
	cmp	r3, r2
	beq	.L1971
	cmp	r3, #8448
	beq	.L1984
.L1981:
	mvn	r6, #94
.L1968:
	mov	r0, r6
	add	sp, sp, #28
	@ sp needed
	ldrd	r4, [sp]
	ldrd	r6, [sp, #8]
	ldrd	r8, [sp, #16]
	ldrd	r10, [sp, #24]
	add	sp, sp, #32
	ldr	pc, [sp], #4
.L1971:
	cmp	r9, #0
	bne	.L1981
	ldrh	r3, [r1, #4]	@ unaligned
	add	r10, r0, #156
	mov	r0, r10
	str	r3, [sp, #20]
	bl	_raw_spin_lock
	mov	r2, r4
	ldr	fp, [r2, #124]!
	cmp	fp, r2
	beq	.L1985
	ldm	fp, {r1, r2}
	mov	lr, #256
	mov	ip, #512
	mov	r0, r10
	str	r2, [r1, #4]
	str	r1, [r2]
	str	lr, [fp]
	str	ip, [fp, #4]
	bl	_raw_spin_unlock
	ldmdb	fp, {r1, r2}
	ldr	r0, [r7]
	bl	memcpy
	mov	r0, r10
	ldr	r6, [fp, #-4]
	bl	_raw_spin_lock
	ldr	r1, [r4, #108]
	add	r2, r4, #108
	cmp	r2, r1
	beq	.L1975
	ldr	r1, [r4, #112]
	str	fp, [r4, #112]
	str	r2, [fp]
	str	r1, [fp, #4]
	str	fp, [r1]
.L1976:
	mov	r0, r10
	bl	_raw_spin_unlock
	movw	r3, #:lower16:rmnet_txcommand_complete
	str	r4, [r7, #32]
	movt	r3, #:upper16:rmnet_txcommand_complete
	str	r3, [r7, #28]
	b	.L1977
.L1984:
	movw	r3, #:lower16:rmnet_smd_command_complete
	str	r0, [r7, #32]
	movt	r3, #:upper16:rmnet_smd_command_complete
	str	r3, [r7, #28]
.L1973:
	ldrb	r3, [r7, #26]	@ zero_extendqisi2
	str	r6, [r7, #4]
	mov	r1, r7
	mov	r2, #32
	bfc	r3, #1, #1
	strb	r3, [r7, #26]
	ldr	r3, [r8]
	ldr	r0, [r3, #4]
	ldr	r3, [r0, #8]
	ldr	r3, [r3, #16]
	blx	r3
	subs	r6, r0, #0
	bge	.L1968
	ldr	r0, [r8]
	movw	r1, #:lower16:.LC51
	mov	r2, r6
	movt	r1, #:upper16:.LC51
	add	r0, r0, #32
	bl	dev_err
	b	.L1968
.L1970:
	ands	r1, r9, #1
	ldr	r0, [r0, #252]
	movne	r2, #0
	movne	r1, #2
	moveq	r2, #2
	bl	smd_tiocmset
	mov	r6, r0
.L1977:
	cmp	r6, #0
	bge	.L1973
	b	.L1968
.L1975:
	ldr	ip, [r4, #112]
	mov	r0, r9
	str	fp, [r4, #112]
	add	r1, r4, #260
	add	r5, r4, #256
	stm	fp, {r2, ip}
	str	fp, [ip]
	bl	_test_and_set_bit
	cmp	r0, #0
	bne	.L1976
	mov	r0, r5
	bl	__tasklet_schedule
	b	.L1976
.L1979:
	mvn	r6, #106
	b	.L1968
.L1985:
	ldr	r0, [r8]
	movw	r1, #:lower16:.LC92
	str	r9, [sp]
	ldr	r2, [sp, #20]
	movt	r1, #:upper16:.LC92
	ldrb	r3, [r5, #1]	@ zero_extendqisi2
	add	r0, r0, #32
	str	r2, [sp, #4]
	ldrb	r2, [r5]	@ zero_extendqisi2
	str	r6, [sp, #8]
	mvn	r6, #94
	bl	_dev_info
	mov	r0, r10
	bl	_raw_spin_unlock
	b	.L1968
	.fnend
	.size	rmnet_smd_setup, .-rmnet_smd_setup
	.align	2
	.syntax unified
	.arm
	.fpu softvfp
	.type	rmnet_smd_unbind, %function
rmnet_smd_unbind:
	.fnstart
	@ args = 0, pretend = 0, frame = 0
	@ frame_needed = 0, uses_anonymous_args = 0
	add	r0, r1, #276
	.save {r4, lr}
	str	r4, [sp, #-8]!
	mov	r4, r1
	str	lr, [sp, #4]
	bl	tasklet_kill
	add	r0, r4, #256
	bl	tasklet_kill
	add	r0, r4, #340
	bl	tasklet_kill
	add	r0, r4, #320
	bl	tasklet_kill
	ldr	r0, [r4, #380]
	bl	flush_workqueue
	mov	r0, r4
	bl	rmnet_smd_free_buf
	mov	r3, #0
	ldr	r0, [r4, #380]
	str	r3, [r4, #80]
	str	r3, [r4, #84]
	str	r3, [r4, #88]
	bl	destroy_workqueue
	movw	r3, #:lower16:.LANCHOR1
	movt	r3, #:upper16:.LANCHOR1
	ldr	r0, [r3, #3456]
	bl	debugfs_remove_recursive
	ldr	lr, [sp, #4]
	mov	r0, r4
	ldr	r4, [sp]
	add	sp, sp, #8
	b	kfree
	.fnend
	.size	rmnet_smd_unbind, .-rmnet_smd_unbind
	.section	.exit.text
	.align	2
	.syntax unified
	.arm
	.fpu softvfp
	.type	ghsuart_ctrl_exit, %function
ghsuart_ctrl_exit:
	.fnstart
	@ args = 0, pretend = 0, frame = 0
	@ frame_needed = 0, uses_anonymous_args = 0
	@ link register save eliminated.
	movw	r3, #:lower16:.LANCHOR1
	movt	r3, #:upper16:.LANCHOR1
	ldr	r0, [r3, #3460]
	b	debugfs_remove_recursive
	.fnend
	.size	ghsuart_ctrl_exit, .-ghsuart_ctrl_exit
	.align	2
	.syntax unified
	.arm
	.fpu softvfp
	.type	ghsuart_data_exit, %function
ghsuart_data_exit:
	.fnstart
	@ args = 0, pretend = 0, frame = 0
	@ frame_needed = 0, uses_anonymous_args = 0
	@ link register save eliminated.
	movw	r3, #:lower16:.LANCHOR1
	movt	r3, #:upper16:.LANCHOR1
	ldr	r0, [r3, #3464]
	b	debugfs_remove_recursive
	.fnend
	.size	ghsuart_data_exit, .-ghsuart_data_exit
	.text
	.align	2
	.syntax unified
	.arm
	.fpu softvfp
	.type	diag_function_cleanup, %function
diag_function_cleanup:
	.fnstart
	@ args = 0, pretend = 0, frame = 0
	@ frame_needed = 0, uses_anonymous_args = 0
	strd	r4, [sp, #-32]!
	.save {r4, r5, r6, r7, r8, r9, r10, lr}
	strd	r6, [sp, #8]
	movw	r6, #:lower16:.LANCHOR1
	strd	r8, [sp, #16]
	movt	r6, #:upper16:.LANCHOR1
	movw	r8, #:lower16:.LANCHOR0
	str	r10, [sp, #24]
	movt	r8, #:upper16:.LANCHOR0
	str	lr, [sp, #28]
	ldr	r0, [r6, #3468]
	bl	debugfs_remove_recursive
	ldr	r5, [r8]
	cmp	r5, r8
	ldr	r4, [r5]
	beq	.L1990
	add	r6, r6, #3472
	mov	r10, #256
	mov	r9, #512
	b	.L1991
.L1993:
	bl	_raw_spin_unlock_irqrestore
	cmp	r4, r8
	ldr	r3, [r4]
	beq	.L1990
.L1994:
	mov	r5, r4
	mov	r4, r3
.L1991:
	mov	r0, r6
	bl	_raw_spin_lock_irqsave
	ldr	r3, [r5, #12]
	mov	r7, r0
	mov	r0, r6
	mov	r1, r7
	cmp	r3, #0
	bne	.L1993
	ldrd	r2, [r5]
	sub	r0, r5, #4
	str	r3, [r2, #4]
	str	r2, [r3]
	str	r10, [r5]
	str	r9, [r5, #4]
	bl	kfree
	mov	r1, r7
	mov	r0, r6
	bl	_raw_spin_unlock_irqrestore
	cmp	r4, r8
	ldr	r3, [r4]
	bne	.L1994
.L1990:
	ldrd	r4, [sp]
	ldrd	r6, [sp, #8]
	ldrd	r8, [sp, #16]
	ldr	r10, [sp, #24]
	add	sp, sp, #28
	ldr	pc, [sp], #4
	.fnend
	.size	diag_function_cleanup, .-diag_function_cleanup
	.align	2
	.syntax unified
	.arm
	.fpu softvfp
	.type	rmnet_function_cleanup, %function
rmnet_function_cleanup:
	.fnstart
	@ args = 0, pretend = 0, frame = 0
	@ frame_needed = 0, uses_anonymous_args = 0
	strd	r4, [sp, #-16]!
	.save {r4, r5, r6, lr}
	movw	r4, #:lower16:.LANCHOR1
	movt	r4, #:upper16:.LANCHOR1
	str	r6, [sp, #8]
	ldr	r3, [r4, #3476]
	str	lr, [sp, #12]
	cmp	r3, #0
	beq	.L1998
	ldr	r6, .L2005
	mov	r5, #0
.L1999:
	ldr	r0, [r6, #20]
	add	r5, r5, #1
	add	r6, r6, #24
	bl	kfree
	ldr	r3, [r4, #3476]
	cmp	r5, r3
	bcc	.L1999
.L1998:
	ldr	r0, [r4, #3480]
	bl	debugfs_remove_recursive
	mov	r3, #0
	ldr	r6, [sp, #8]
	str	r3, [r4, #3476]
	str	r3, [r4, #3484]
	str	r3, [r4, #3488]
	str	r3, [r4, #3492]
	str	r3, [r4, #3496]
	str	r3, [r4, #3500]
	str	r3, [r4, #3504]
	str	r3, [r4, #3508]
	str	r3, [r4, #3512]
	ldrd	r4, [sp]
	add	sp, sp, #12
	ldr	pc, [sp], #4
.L2006:
	.align	2
.L2005:
	.word	.LANCHOR1+2340
	.fnend
	.size	rmnet_function_cleanup, .-rmnet_function_cleanup
	.align	2
	.syntax unified
	.arm
	.fpu softvfp
	.type	rmnet_data_tx_tlet, %function
rmnet_data_tx_tlet:
	.fnstart
	@ args = 0, pretend = 0, frame = 0
	@ frame_needed = 0, uses_anonymous_args = 0
	strd	r4, [sp, #-32]!
	.save {r4, r5, r6, r7, r8, r9, r10, lr}
	mov	r5, r0
	strd	r6, [sp, #8]
	add	r6, r0, #156
	add	r7, r0, #132
	strd	r8, [sp, #16]
	mov	r8, #256
	str	r10, [sp, #24]
	str	lr, [sp, #28]
	ldr	r9, [r0, #76]
	b	.L2011
.L2018:
	ldr	r0, [r5, #316]
	bl	smd_read_avail
	cmp	r0, r10
	mov	r0, r6
	blt	.L2007
	bl	_raw_spin_lock_irqsave
	ldr	r4, [r5, #132]
	mov	r3, r0
	mov	ip, #512
	mov	r0, r6
	mov	r1, r3
	cmp	r7, r4
	beq	.L2016
	ldrd	r2, [r4]
	str	r3, [r2, #4]
	str	r2, [r3]
	stm	r4, {r8, ip}
	bl	_raw_spin_unlock_irqrestore
	mov	r2, r10
	ldr	r1, [r4, #-36]
	ldr	r0, [r5, #316]
	bl	smd_read
	str	r0, [r4, #-32]
	ldr	r0, [r5, #84]
	mov	r2, #32
	sub	r1, r4, #36
	ldr	r3, [r0, #8]
	ldr	r3, [r3, #16]
	blx	r3
	subs	r2, r0, #0
	mov	r0, r6
	bne	.L2017
	bl	_raw_spin_lock_irqsave
	ldr	r3, [r5, #420]
	mov	r1, r0
	mov	r0, r6
	add	r3, r3, #1
	str	r3, [r5, #420]
	bl	_raw_spin_unlock_irqrestore
.L2011:
	ldr	r0, [r5, #316]
	bl	smd_cur_packet_size
	subs	r10, r0, #0
	bne	.L2018
.L2007:
	ldrd	r4, [sp]
	ldrd	r6, [sp, #8]
	ldrd	r8, [sp, #16]
	ldr	r10, [sp, #24]
	add	sp, sp, #28
	ldr	pc, [sp], #4
.L2017:
	ldr	r0, [r9]
	movw	r1, #:lower16:.LC139
	movt	r1, #:upper16:.LC139
	add	r0, r0, #32
	bl	dev_err
	mov	r0, r6
	bl	_raw_spin_lock_irqsave
	ldr	r3, [r5, #136]
	mov	r1, r0
	mov	r0, r6
	str	r4, [r5, #136]
	str	r7, [r4]
	str	r3, [r4, #4]
	str	r4, [r3]
.L2016:
	ldrd	r4, [sp]
	ldrd	r6, [sp, #8]
	ldrd	r8, [sp, #16]
	ldr	r10, [sp, #24]
	ldr	lr, [sp, #28]
	add	sp, sp, #32
	b	_raw_spin_unlock_irqrestore
	.fnend
	.size	rmnet_data_tx_tlet, .-rmnet_data_tx_tlet
	.align	2
	.syntax unified
	.arm
	.fpu softvfp
	.type	rmnet_control_tx_tlet, %function
rmnet_control_tx_tlet:
	.fnstart
	@ args = 0, pretend = 0, frame = 8
	@ frame_needed = 0, uses_anonymous_args = 0
	strd	r4, [sp, #-36]!
	.save {r4, r5, r6, r7, r8, r9, r10, fp, lr}
	mov	r4, r0
	strd	r6, [sp, #8]
	add	r6, r0, #156
	strd	r8, [sp, #16]
	strd	r10, [sp, #24]
	movw	r10, #:lower16:.LC2
	str	lr, [sp, #32]
	ldr	r3, [r0, #76]
	.pad #12
	sub	sp, sp, #12
	movt	r10, #:upper16:.LC2
	str	r3, [sp]
.L2024:
	add	r9, r4, #108
.L2023:
	mov	r8, #256
.L2022:
	ldr	r0, [r4, #252]
	add	r5, r4, #164
	bl	smd_cur_packet_size
	subs	r7, r0, #0
	beq	.L2019
	ldr	r0, [r4, #252]
	bl	smd_read_avail
	cmp	r0, r7
	mov	r0, r6
	blt	.L2019
	bl	_raw_spin_lock_irqsave
	ldr	fp, [r4, #108]
	mov	r2, r0
	mov	ip, #512
	mov	r0, r6
	mov	r1, r2
	cmp	fp, r9
	beq	.L2031
	ldr	lr, [fp]
	ldr	r2, [fp, #4]
	str	r2, [lr, #4]
	str	lr, [r2]
	stm	fp, {r8, ip}
	bl	_raw_spin_unlock_irqrestore
	mov	r2, r7
	ldr	r1, [fp, #-8]
	ldr	r0, [r4, #252]
	bl	smd_read
	str	r0, [fp, #-4]
	mov	r0, r6
	bl	_raw_spin_lock_irqsave
	ldr	lr, [r4, #128]
	add	r2, r4, #124
	str	fp, [r4, #128]
	ldr	ip, [r4, #436]
	mov	r1, r0
	mov	r0, r6
	add	ip, ip, #1
	str	ip, [r4, #436]
	stm	fp, {r2, lr}
	str	fp, [lr]
	bl	_raw_spin_unlock_irqrestore
	ldr	r7, [r4, #76]
	ldr	r3, [r4, #92]
	ldr	r3, [r3]
	.syntax divided
@ 60 "/home/xawlw/kernel/arg/arch/arm/include/asm/atomic.h" 1
	dmb
@ 0 "" 2
@ 62 "/home/xawlw/kernel/arg/arch/arm/include/asm/atomic.h" 1
	@ atomic_add_return
1:	ldrex	r2, [r5]
	add	r2, r2, #1
	strex	r1, r2, [r5]
	teq	r1, #0
	bne	1b
@ 0 "" 2
@ 72 "/home/xawlw/kernel/arg/arch/arm/include/asm/atomic.h" 1
	dmb
@ 0 "" 2
	.arm
	.syntax unified
	cmp	r2, #1
	bne	.L2022
	mov	r1, #0
	mvn	r0, #94
	strb	r0, [r3]
	strb	r2, [r3, #1]
	mov	r2, #32
	strb	r1, [r3, #2]
	strb	r1, [r3, #3]
	ldrb	r0, [r4, #96]	@ zero_extendqisi2
	strh	r0, [r3, #4]	@ unaligned
	strb	r1, [r3, #6]
	strb	r1, [r3, #7]
	ldrd	r0, [r4, #88]
	ldr	r3, [r0, #8]
	ldr	r3, [r3, #16]
	blx	r3
	subs	r2, r0, #0
	bge	.L2023
	.syntax divided
@ 82 "/home/xawlw/kernel/arg/arch/arm/include/asm/atomic.h" 1
	@ atomic_sub
1:	ldrex	r3, [r5]
	sub	r3, r3, #1
	strex	r1, r3, [r5]
	teq	r1, #0
	bne	1b
@ 0 "" 2
	.arm
	.syntax unified
	ldr	r0, [r7]
	mov	r1, r10
	add	r0, r0, #32
	bl	dev_err
	b	.L2024
.L2019:
	add	sp, sp, #12
	@ sp needed
	ldrd	r4, [sp]
	ldrd	r6, [sp, #8]
	ldrd	r8, [sp, #16]
	ldrd	r10, [sp, #24]
	add	sp, sp, #32
	ldr	pc, [sp], #4
.L2031:
	ldr	r3, [sp]
	movw	r1, #:lower16:.LC140
	str	r2, [sp, #4]
	movt	r1, #:upper16:.LC140
	ldr	r0, [r3]
	add	r0, r0, #32
	bl	dev_err
	ldr	r2, [sp, #4]
	mov	r0, r6
	mov	r1, r2
	add	sp, sp, #12
	@ sp needed
	ldrd	r4, [sp]
	ldrd	r6, [sp, #8]
	ldrd	r8, [sp, #16]
	ldrd	r10, [sp, #24]
	ldr	lr, [sp, #32]
	add	sp, sp, #36
	b	_raw_spin_unlock_irqrestore
	.fnend
	.size	rmnet_control_tx_tlet, .-rmnet_control_tx_tlet
	.align	2
	.syntax unified
	.arm
	.fpu softvfp
	.type	gsmd_tx_pull, %function
gsmd_tx_pull:
	.fnstart
	@ args = 0, pretend = 0, frame = 8
	@ frame_needed = 0, uses_anonymous_args = 0
	strd	r4, [sp, #-36]!
	.save {r4, r5, r6, r7, r8, r9, r10, fp, lr}
	sub	r3, r0, #52
	mov	r5, r0
	strd	r6, [sp, #8]
	sub	r6, r0, #48
	strd	r8, [sp, #16]
	strd	r10, [sp, #24]
	str	lr, [sp, #32]
	.pad #20
	sub	sp, sp, #20
	ldr	r7, [r0, #20]
	mov	r0, r6
	str	r3, [sp, #12]
	bl	_raw_spin_lock_irq
	ldr	r3, [r5, #16]
	cmp	r3, #0
	beq	.L2063
	ldr	r0, [r7]
	sub	r10, r5, #8
	ldr	r8, [r3, #80]
	cmp	r0, #0
	beq	.L2042
	ldr	r3, [r5, #-8]
	cmp	r3, r10
	bne	.L2047
	b	.L2042
.L2065:
	ldr	r4, [r5, #-8]
	cmp	r0, #2048
	movlt	r2, r0
	movge	r2, #2048
	ldm	r4, {r1, r3}
	sub	r9, r4, #36
	str	r3, [r1, #4]
	str	r1, [r3]
	mov	r3, #256
	ldr	r1, [r4, #-36]
	str	r3, [r4]
	mov	r3, #512
	str	r3, [r4, #4]
	ldr	r0, [r7]
	bl	smd_read
	str	r0, [r4, #-32]
	mov	r0, r6
	bl	_raw_spin_unlock_irq
	ldr	r3, [r8, #8]
	mov	r1, r9
	mov	r2, #208
	mov	r0, r8
	ldr	r3, [r3, #16]
	blx	r3
	mov	fp, r0
	mov	r0, r6
	bl	_raw_spin_lock_irq
	cmp	fp, #0
	bne	.L2064
	ldr	r2, [r4, #-32]
	ldr	r3, [r5, #116]
	add	r3, r3, r2
	str	r3, [r5, #116]
	ldr	r0, [r7]
	cmp	r0, #0
	beq	.L2046
	ldr	r3, [r5, #-8]
	cmp	r10, r3
	beq	.L2046
.L2047:
	bl	smd_read_avail
	cmp	r0, #0
	bne	.L2065
.L2046:
	ldr	r3, [r5, #16]
	cmp	r3, #0
	bne	.L2042
.L2048:
	mov	r0, r6
	add	sp, sp, #20
	@ sp needed
	ldrd	r4, [sp]
	ldrd	r6, [sp, #8]
	ldrd	r8, [sp, #16]
	ldrd	r10, [sp, #24]
	ldr	lr, [sp, #32]
	add	sp, sp, #36
	b	_raw_spin_unlock_irq
.L2042:
	ldr	r3, [r5, #20]
	ldr	r0, [r3]
	bl	smd_read_avail
	cmp	r0, #0
	beq	.L2048
	ldr	r3, [r5, #-8]
	cmp	r10, r3
	beq	.L2048
	movw	r3, #:lower16:.LANCHOR1
	mov	r1, r5
	movt	r3, #:upper16:.LANCHOR1
	ldr	r0, [r3, #3436]
	bl	queue_work
	b	.L2048
.L2063:
	mov	r0, r6
	bl	_raw_spin_unlock_irq
	sub	r3, r5, #52
	cmp	r3, #0
	beq	.L2032
	ldr	r3, [r5, #20]
	ldr	r0, [r3]
	cmp	r0, #0
	bne	.L2037
	b	.L2032
.L2038:
	ldr	r3, [r5, #20]
	ldr	r0, [r3]
	bl	smd_read
	ldr	r3, [r5, #20]
	ldr	r0, [r3]
.L2037:
	bl	smd_read_avail
	subs	r2, r0, #0
	mov	r1, #0
	bne	.L2038
.L2032:
	add	sp, sp, #20
	@ sp needed
	ldrd	r4, [sp]
	ldrd	r6, [sp, #8]
	ldrd	r8, [sp, #16]
	ldrd	r10, [sp, #24]
	add	sp, sp, #32
	ldr	pc, [sp], #4
.L2064:
	movw	r0, #:lower16:.LC141
	ldr	r3, [r5, #-52]
	str	fp, [sp]
	movt	r0, #:upper16:.LC141
	ldr	r1, .L2067
	ldr	r2, [sp, #12]
	bl	printk
	ldr	r3, [r5, #16]
	cmp	r3, #0
	beq	.L2066
	ldr	r3, [r5, #-8]
	str	r4, [r3, #4]
	stm	r4, {r3, r10}
	str	r4, [r5, #-8]
	b	.L2046
.L2066:
	ldr	r0, [r4, #-36]
	bl	kfree
	ldr	r3, [r8, #8]
	mov	r1, r9
	mov	r0, r8
	ldr	r3, [r3, #12]
	blx	r3
	b	.L2046
.L2068:
	.align	2
.L2067:
	.word	.LANCHOR2+756
	.fnend
	.size	gsmd_tx_pull, .-gsmd_tx_pull
	.align	2
	.syntax unified
	.arm
	.fpu softvfp
	.type	rmnet_mux_smd_data_tx_tlet, %function
rmnet_mux_smd_data_tx_tlet:
	.fnstart
	@ args = 0, pretend = 0, frame = 0
